ARM GAS  C:\Users\chris\AppData\Local\Temp\ccQmEsxZ.s 			page 1


   1              		.syntax unified
   2              		.cpu cortex-m3
   3              		.fpu softvfp
   4              		.eabi_attribute 20, 1
   5              		.eabi_attribute 21, 1
   6              		.eabi_attribute 23, 3
   7              		.eabi_attribute 24, 1
   8              		.eabi_attribute 25, 1
   9              		.eabi_attribute 26, 1
  10              		.eabi_attribute 30, 1
  11              		.eabi_attribute 34, 1
  12              		.eabi_attribute 18, 4
  13              		.thumb
  14              		.file	"ADC_SAR_Seq_1.c"
  15              		.text
  16              	.Ltext0:
  17              		.cfi_sections	.debug_frame
  18              		.section	.text.ADC_SAR_Seq_1_Disable,"ax",%progbits
  19              		.align	2
  20              		.global	ADC_SAR_Seq_1_Disable
  21              		.thumb
  22              		.thumb_func
  23              		.type	ADC_SAR_Seq_1_Disable, %function
  24              	ADC_SAR_Seq_1_Disable:
  25              	.LFB0:
  26              		.file 1 ".\\Generated_Source\\PSoC5\\ADC_SAR_Seq_1.c"
   1:.\Generated_Source\PSoC5/ADC_SAR_Seq_1.c **** /*******************************************************************************
   2:.\Generated_Source\PSoC5/ADC_SAR_Seq_1.c **** * File Name: ADC_SAR_Seq_1.c
   3:.\Generated_Source\PSoC5/ADC_SAR_Seq_1.c **** * Version 2.0
   4:.\Generated_Source\PSoC5/ADC_SAR_Seq_1.c **** *
   5:.\Generated_Source\PSoC5/ADC_SAR_Seq_1.c **** * Description:
   6:.\Generated_Source\PSoC5/ADC_SAR_Seq_1.c **** *  This file provides the API functionality of the ADC SAR Sequencer Component
   7:.\Generated_Source\PSoC5/ADC_SAR_Seq_1.c **** *
   8:.\Generated_Source\PSoC5/ADC_SAR_Seq_1.c **** * Note:
   9:.\Generated_Source\PSoC5/ADC_SAR_Seq_1.c **** *  None
  10:.\Generated_Source\PSoC5/ADC_SAR_Seq_1.c **** *
  11:.\Generated_Source\PSoC5/ADC_SAR_Seq_1.c **** ********************************************************************************
  12:.\Generated_Source\PSoC5/ADC_SAR_Seq_1.c **** * Copyright 2012-2015, Cypress Semiconductor Corporation.  All rights reserved.
  13:.\Generated_Source\PSoC5/ADC_SAR_Seq_1.c **** * You may use this file only in accordance with the license, terms, conditions,
  14:.\Generated_Source\PSoC5/ADC_SAR_Seq_1.c **** * disclaimers, and limitations in the end user license agreement accompanying
  15:.\Generated_Source\PSoC5/ADC_SAR_Seq_1.c **** * the software package with which this file was provided.
  16:.\Generated_Source\PSoC5/ADC_SAR_Seq_1.c **** *******************************************************************************/
  17:.\Generated_Source\PSoC5/ADC_SAR_Seq_1.c **** 
  18:.\Generated_Source\PSoC5/ADC_SAR_Seq_1.c **** #include "ADC_SAR_Seq_1.h"
  19:.\Generated_Source\PSoC5/ADC_SAR_Seq_1.c **** #if(ADC_SAR_Seq_1_IRQ_REMOVE == 0u)
  20:.\Generated_Source\PSoC5/ADC_SAR_Seq_1.c ****     #include "ADC_SAR_Seq_1_IRQ.h"
  21:.\Generated_Source\PSoC5/ADC_SAR_Seq_1.c **** #endif   /* End ADC_SAR_Seq_1_IRQ_REMOVE */
  22:.\Generated_Source\PSoC5/ADC_SAR_Seq_1.c **** 
  23:.\Generated_Source\PSoC5/ADC_SAR_Seq_1.c **** int16  ADC_SAR_Seq_1_finalArray[ADC_SAR_Seq_1_NUMBER_OF_CHANNELS];
  24:.\Generated_Source\PSoC5/ADC_SAR_Seq_1.c **** uint32 ADC_SAR_Seq_1_initVar = 0u;
  25:.\Generated_Source\PSoC5/ADC_SAR_Seq_1.c **** static uint8 ADC_SAR_Seq_1_tempChan;
  26:.\Generated_Source\PSoC5/ADC_SAR_Seq_1.c **** static uint8 ADC_SAR_Seq_1_finalChan;
  27:.\Generated_Source\PSoC5/ADC_SAR_Seq_1.c **** static uint8 ADC_SAR_Seq_1_tempTD = CY_DMA_INVALID_TD;
  28:.\Generated_Source\PSoC5/ADC_SAR_Seq_1.c **** static uint8 ADC_SAR_Seq_1_finalTD = CY_DMA_INVALID_TD;
  29:.\Generated_Source\PSoC5/ADC_SAR_Seq_1.c **** 
  30:.\Generated_Source\PSoC5/ADC_SAR_Seq_1.c **** 
  31:.\Generated_Source\PSoC5/ADC_SAR_Seq_1.c **** /****************************************************************************
ARM GAS  C:\Users\chris\AppData\Local\Temp\ccQmEsxZ.s 			page 2


  32:.\Generated_Source\PSoC5/ADC_SAR_Seq_1.c **** * Function Name: ADC_SAR_Seq_1_Disable()
  33:.\Generated_Source\PSoC5/ADC_SAR_Seq_1.c **** *****************************************************************************
  34:.\Generated_Source\PSoC5/ADC_SAR_Seq_1.c **** *
  35:.\Generated_Source\PSoC5/ADC_SAR_Seq_1.c **** * Summary:
  36:.\Generated_Source\PSoC5/ADC_SAR_Seq_1.c **** *  Disables the component without disabling the ADC SAR.
  37:.\Generated_Source\PSoC5/ADC_SAR_Seq_1.c **** *
  38:.\Generated_Source\PSoC5/ADC_SAR_Seq_1.c **** * Parameters:
  39:.\Generated_Source\PSoC5/ADC_SAR_Seq_1.c **** *  None.
  40:.\Generated_Source\PSoC5/ADC_SAR_Seq_1.c **** *
  41:.\Generated_Source\PSoC5/ADC_SAR_Seq_1.c **** * Return:
  42:.\Generated_Source\PSoC5/ADC_SAR_Seq_1.c **** *  None.
  43:.\Generated_Source\PSoC5/ADC_SAR_Seq_1.c **** *
  44:.\Generated_Source\PSoC5/ADC_SAR_Seq_1.c **** * Side Effects:
  45:.\Generated_Source\PSoC5/ADC_SAR_Seq_1.c **** *  None.
  46:.\Generated_Source\PSoC5/ADC_SAR_Seq_1.c **** *
  47:.\Generated_Source\PSoC5/ADC_SAR_Seq_1.c **** * Reentrant:
  48:.\Generated_Source\PSoC5/ADC_SAR_Seq_1.c **** *  No.
  49:.\Generated_Source\PSoC5/ADC_SAR_Seq_1.c **** *
  50:.\Generated_Source\PSoC5/ADC_SAR_Seq_1.c **** ****************************************************************************/
  51:.\Generated_Source\PSoC5/ADC_SAR_Seq_1.c **** void ADC_SAR_Seq_1_Disable(void)
  52:.\Generated_Source\PSoC5/ADC_SAR_Seq_1.c **** {
  27              		.loc 1 52 0
  28              		.cfi_startproc
  29              		@ args = 0, pretend = 0, frame = 0
  30              		@ frame_needed = 0, uses_anonymous_args = 0
  31 0000 70B5     		push	{r4, r5, r6, lr}
  32              		.cfi_def_cfa_offset 16
  33              		.cfi_offset 4, -16
  34              		.cfi_offset 5, -12
  35              		.cfi_offset 6, -8
  36              		.cfi_offset 14, -4
  53:.\Generated_Source\PSoC5/ADC_SAR_Seq_1.c ****     ADC_SAR_Seq_1_CONTROL_REG &= ((uint8)(~ADC_SAR_Seq_1_BASE_COMPONENT_ENABLE));
  37              		.loc 1 53 0
  38 0002 0B4A     		ldr	r2, .L3
  39 0004 1378     		ldrb	r3, [r2]	@ zero_extendqisi2
  40 0006 03F0FE03 		and	r3, r3, #254
  41 000a 1370     		strb	r3, [r2]
  54:.\Generated_Source\PSoC5/ADC_SAR_Seq_1.c **** 
  55:.\Generated_Source\PSoC5/ADC_SAR_Seq_1.c ****     (void) CyDmaChDisable(ADC_SAR_Seq_1_tempChan);
  42              		.loc 1 55 0
  43 000c 094E     		ldr	r6, .L3+4
  44 000e 3078     		ldrb	r0, [r6]	@ zero_extendqisi2
  45 0010 FFF7FEFF 		bl	CyDmaChDisable
  46              	.LVL0:
  56:.\Generated_Source\PSoC5/ADC_SAR_Seq_1.c ****     CyDmaTdFree(ADC_SAR_Seq_1_tempTD);
  47              		.loc 1 56 0
  48 0014 084C     		ldr	r4, .L3+8
  49 0016 2078     		ldrb	r0, [r4]	@ zero_extendqisi2
  50 0018 FFF7FEFF 		bl	CyDmaTdFree
  51              	.LVL1:
  57:.\Generated_Source\PSoC5/ADC_SAR_Seq_1.c ****     ADC_SAR_Seq_1_tempTD = CY_DMA_INVALID_TD;
  52              		.loc 1 57 0
  53 001c FF25     		movs	r5, #255
  54 001e 2570     		strb	r5, [r4]
  58:.\Generated_Source\PSoC5/ADC_SAR_Seq_1.c **** 
  59:.\Generated_Source\PSoC5/ADC_SAR_Seq_1.c ****     (void) CyDmaChDisable(ADC_SAR_Seq_1_finalChan);
  55              		.loc 1 59 0
ARM GAS  C:\Users\chris\AppData\Local\Temp\ccQmEsxZ.s 			page 3


  56 0020 7078     		ldrb	r0, [r6, #1]	@ zero_extendqisi2
  57 0022 FFF7FEFF 		bl	CyDmaChDisable
  58              	.LVL2:
  60:.\Generated_Source\PSoC5/ADC_SAR_Seq_1.c ****     CyDmaTdFree(ADC_SAR_Seq_1_finalTD);
  59              		.loc 1 60 0
  60 0026 6078     		ldrb	r0, [r4, #1]	@ zero_extendqisi2
  61 0028 FFF7FEFF 		bl	CyDmaTdFree
  62              	.LVL3:
  61:.\Generated_Source\PSoC5/ADC_SAR_Seq_1.c ****     ADC_SAR_Seq_1_finalTD = CY_DMA_INVALID_TD;
  63              		.loc 1 61 0
  64 002c 6570     		strb	r5, [r4, #1]
  65 002e 70BD     		pop	{r4, r5, r6, pc}
  66              	.L4:
  67              		.align	2
  68              	.L3:
  69 0030 72640040 		.word	1073767538
  70 0034 00000000 		.word	.LANCHOR0
  71 0038 00000000 		.word	.LANCHOR1
  72              		.cfi_endproc
  73              	.LFE0:
  74              		.size	ADC_SAR_Seq_1_Disable, .-ADC_SAR_Seq_1_Disable
  75              		.section	.text.ADC_SAR_Seq_1_Init,"ax",%progbits
  76              		.align	2
  77              		.global	ADC_SAR_Seq_1_Init
  78              		.thumb
  79              		.thumb_func
  80              		.type	ADC_SAR_Seq_1_Init, %function
  81              	ADC_SAR_Seq_1_Init:
  82              	.LFB1:
  62:.\Generated_Source\PSoC5/ADC_SAR_Seq_1.c **** }
  63:.\Generated_Source\PSoC5/ADC_SAR_Seq_1.c **** 
  64:.\Generated_Source\PSoC5/ADC_SAR_Seq_1.c **** 
  65:.\Generated_Source\PSoC5/ADC_SAR_Seq_1.c **** /*******************************************************************************
  66:.\Generated_Source\PSoC5/ADC_SAR_Seq_1.c **** * Function Name: ADC_SAR_Seq_1_Init
  67:.\Generated_Source\PSoC5/ADC_SAR_Seq_1.c **** ********************************************************************************
  68:.\Generated_Source\PSoC5/ADC_SAR_Seq_1.c **** *
  69:.\Generated_Source\PSoC5/ADC_SAR_Seq_1.c **** * Summary:
  70:.\Generated_Source\PSoC5/ADC_SAR_Seq_1.c **** *  Inits channels for DMA transfer. Provides loading period to the AMUX address
  71:.\Generated_Source\PSoC5/ADC_SAR_Seq_1.c **** *  selection counter
  72:.\Generated_Source\PSoC5/ADC_SAR_Seq_1.c **** *
  73:.\Generated_Source\PSoC5/ADC_SAR_Seq_1.c **** * Parameters:
  74:.\Generated_Source\PSoC5/ADC_SAR_Seq_1.c **** *  None.
  75:.\Generated_Source\PSoC5/ADC_SAR_Seq_1.c **** *
  76:.\Generated_Source\PSoC5/ADC_SAR_Seq_1.c **** * Return:
  77:.\Generated_Source\PSoC5/ADC_SAR_Seq_1.c **** *  None.
  78:.\Generated_Source\PSoC5/ADC_SAR_Seq_1.c **** *
  79:.\Generated_Source\PSoC5/ADC_SAR_Seq_1.c **** * Reentrant:
  80:.\Generated_Source\PSoC5/ADC_SAR_Seq_1.c **** *  No.
  81:.\Generated_Source\PSoC5/ADC_SAR_Seq_1.c **** *
  82:.\Generated_Source\PSoC5/ADC_SAR_Seq_1.c **** *******************************************************************************/
  83:.\Generated_Source\PSoC5/ADC_SAR_Seq_1.c **** void ADC_SAR_Seq_1_Init(void)
  84:.\Generated_Source\PSoC5/ADC_SAR_Seq_1.c **** {
  83              		.loc 1 84 0
  84              		.cfi_startproc
  85              		@ args = 0, pretend = 0, frame = 0
  86              		@ frame_needed = 0, uses_anonymous_args = 0
  87 0000 10B5     		push	{r4, lr}
ARM GAS  C:\Users\chris\AppData\Local\Temp\ccQmEsxZ.s 			page 4


  88              		.cfi_def_cfa_offset 8
  89              		.cfi_offset 4, -8
  90              		.cfi_offset 14, -4
  85:.\Generated_Source\PSoC5/ADC_SAR_Seq_1.c ****     /* Init DMA, 2 bytes bursts, each burst requires a request */
  86:.\Generated_Source\PSoC5/ADC_SAR_Seq_1.c ****     ADC_SAR_Seq_1_tempChan = ADC_SAR_Seq_1_TempBuf_DmaInitialize(ADC_SAR_Seq_1_TEMP_BYTES_PER_BURST
  91              		.loc 1 86 0
  92 0002 0220     		movs	r0, #2
  93 0004 0121     		movs	r1, #1
  94 0006 4FF48042 		mov	r2, #16384
  95 000a 41F6FF73 		movw	r3, #8191
  96 000e FFF7FEFF 		bl	ADC_SAR_Seq_1_TempBuf_DmaInitialize
  97              	.LVL4:
  98 0012 084C     		ldr	r4, .L7
  99 0014 2070     		strb	r0, [r4]
  87:.\Generated_Source\PSoC5/ADC_SAR_Seq_1.c ****         ADC_SAR_Seq_1_REQUEST_PER_BURST, (uint16)(HI16(CYDEV_PERIPH_BASE)), (uint16)(HI16(CYDEV_SRA
  88:.\Generated_Source\PSoC5/ADC_SAR_Seq_1.c **** 
  89:.\Generated_Source\PSoC5/ADC_SAR_Seq_1.c ****     /* Init DMA, (ADC_SAR_Seq_1_NUMBER_OF_CHANNELS << 1u) bytes bursts, each burst requires a reque
  90:.\Generated_Source\PSoC5/ADC_SAR_Seq_1.c ****     ADC_SAR_Seq_1_finalChan = ADC_SAR_Seq_1_FinalBuf_DmaInitialize((uint8)ADC_SAR_Seq_1_FINAL_BYTES
 100              		.loc 1 90 0
 101 0016 0220     		movs	r0, #2
 102 0018 0121     		movs	r1, #1
 103 001a 41F6FF72 		movw	r2, #8191
 104 001e 1346     		mov	r3, r2
 105 0020 FFF7FEFF 		bl	ADC_SAR_Seq_1_FinalBuf_DmaInitialize
 106              	.LVL5:
 107 0024 6070     		strb	r0, [r4, #1]
  91:.\Generated_Source\PSoC5/ADC_SAR_Seq_1.c ****         ADC_SAR_Seq_1_REQUEST_PER_BURST, (uint16)(HI16(CYDEV_SRAM_BASE)), (uint16)(HI16(CYDEV_SRAM_
  92:.\Generated_Source\PSoC5/ADC_SAR_Seq_1.c **** 
  93:.\Generated_Source\PSoC5/ADC_SAR_Seq_1.c ****     #if(ADC_SAR_Seq_1_IRQ_REMOVE == 0u)
  94:.\Generated_Source\PSoC5/ADC_SAR_Seq_1.c ****         /* Set the ISR to point to the ADC_SAR_Seq_1_IRQ Interrupt. */
  95:.\Generated_Source\PSoC5/ADC_SAR_Seq_1.c ****         ADC_SAR_Seq_1_IRQ_SetVector(&ADC_SAR_Seq_1_ISR);
 108              		.loc 1 95 0
 109 0026 0448     		ldr	r0, .L7+4
 110 0028 FFF7FEFF 		bl	ADC_SAR_Seq_1_IRQ_SetVector
 111              	.LVL6:
  96:.\Generated_Source\PSoC5/ADC_SAR_Seq_1.c ****         /* Set the priority. */
  97:.\Generated_Source\PSoC5/ADC_SAR_Seq_1.c ****         ADC_SAR_Seq_1_IRQ_SetPriority((uint8)ADC_SAR_Seq_1_INTC_NUMBER);
 112              		.loc 1 97 0
 113 002c 0220     		movs	r0, #2
 114 002e FFF7FEFF 		bl	ADC_SAR_Seq_1_IRQ_SetPriority
 115              	.LVL7:
 116 0032 10BD     		pop	{r4, pc}
 117              	.L8:
 118              		.align	2
 119              	.L7:
 120 0034 00000000 		.word	.LANCHOR0
 121 0038 00000000 		.word	ADC_SAR_Seq_1_ISR
 122              		.cfi_endproc
 123              	.LFE1:
 124              		.size	ADC_SAR_Seq_1_Init, .-ADC_SAR_Seq_1_Init
 125              		.section	.text.ADC_SAR_Seq_1_Enable,"ax",%progbits
 126              		.align	2
 127              		.global	ADC_SAR_Seq_1_Enable
 128              		.thumb
 129              		.thumb_func
 130              		.type	ADC_SAR_Seq_1_Enable, %function
 131              	ADC_SAR_Seq_1_Enable:
ARM GAS  C:\Users\chris\AppData\Local\Temp\ccQmEsxZ.s 			page 5


 132              	.LFB2:
  98:.\Generated_Source\PSoC5/ADC_SAR_Seq_1.c ****     #endif   /* End ADC_SAR_Seq_1_IRQ_REMOVE */
  99:.\Generated_Source\PSoC5/ADC_SAR_Seq_1.c **** 
 100:.\Generated_Source\PSoC5/ADC_SAR_Seq_1.c **** }
 101:.\Generated_Source\PSoC5/ADC_SAR_Seq_1.c **** 
 102:.\Generated_Source\PSoC5/ADC_SAR_Seq_1.c **** 
 103:.\Generated_Source\PSoC5/ADC_SAR_Seq_1.c **** /*******************************************************************************
 104:.\Generated_Source\PSoC5/ADC_SAR_Seq_1.c **** * Function Name: ADC_SAR_Seq_1_Enable
 105:.\Generated_Source\PSoC5/ADC_SAR_Seq_1.c **** ********************************************************************************
 106:.\Generated_Source\PSoC5/ADC_SAR_Seq_1.c **** *
 107:.\Generated_Source\PSoC5/ADC_SAR_Seq_1.c **** * Summary:
 108:.\Generated_Source\PSoC5/ADC_SAR_Seq_1.c **** *  Enables DMA channels, address selection counter and FSM of Base component
 109:.\Generated_Source\PSoC5/ADC_SAR_Seq_1.c **** *
 110:.\Generated_Source\PSoC5/ADC_SAR_Seq_1.c **** * Parameters:
 111:.\Generated_Source\PSoC5/ADC_SAR_Seq_1.c **** *  None.
 112:.\Generated_Source\PSoC5/ADC_SAR_Seq_1.c **** *
 113:.\Generated_Source\PSoC5/ADC_SAR_Seq_1.c **** * Return:
 114:.\Generated_Source\PSoC5/ADC_SAR_Seq_1.c **** *  None.
 115:.\Generated_Source\PSoC5/ADC_SAR_Seq_1.c **** *
 116:.\Generated_Source\PSoC5/ADC_SAR_Seq_1.c **** * Side Effects:
 117:.\Generated_Source\PSoC5/ADC_SAR_Seq_1.c **** *  None.
 118:.\Generated_Source\PSoC5/ADC_SAR_Seq_1.c **** *
 119:.\Generated_Source\PSoC5/ADC_SAR_Seq_1.c **** * Reentrant:
 120:.\Generated_Source\PSoC5/ADC_SAR_Seq_1.c **** *  No.
 121:.\Generated_Source\PSoC5/ADC_SAR_Seq_1.c **** *
 122:.\Generated_Source\PSoC5/ADC_SAR_Seq_1.c **** *******************************************************************************/
 123:.\Generated_Source\PSoC5/ADC_SAR_Seq_1.c **** void ADC_SAR_Seq_1_Enable(void)
 124:.\Generated_Source\PSoC5/ADC_SAR_Seq_1.c **** {
 133              		.loc 1 124 0
 134              		.cfi_startproc
 135              		@ args = 0, pretend = 0, frame = 0
 136              		@ frame_needed = 0, uses_anonymous_args = 0
 137 0000 70B5     		push	{r4, r5, r6, lr}
 138              		.cfi_def_cfa_offset 16
 139              		.cfi_offset 4, -16
 140              		.cfi_offset 5, -12
 141              		.cfi_offset 6, -8
 142              		.cfi_offset 14, -4
 125:.\Generated_Source\PSoC5/ADC_SAR_Seq_1.c ****     uint8 enableInterrupts;
 126:.\Generated_Source\PSoC5/ADC_SAR_Seq_1.c **** 
 127:.\Generated_Source\PSoC5/ADC_SAR_Seq_1.c ****     static int16 ADC_SAR_Seq_1_tempArray[ADC_SAR_Seq_1_NUMBER_OF_CHANNELS];
 128:.\Generated_Source\PSoC5/ADC_SAR_Seq_1.c ****     
 129:.\Generated_Source\PSoC5/ADC_SAR_Seq_1.c ****     (void)CyDmaClearPendingDrq(ADC_SAR_Seq_1_tempChan);
 143              		.loc 1 129 0
 144 0002 2C4C     		ldr	r4, .L13
 145 0004 2078     		ldrb	r0, [r4]	@ zero_extendqisi2
 146 0006 FFF7FEFF 		bl	CyDmaClearPendingDrq
 147              	.LVL8:
 130:.\Generated_Source\PSoC5/ADC_SAR_Seq_1.c ****     (void)CyDmaClearPendingDrq(ADC_SAR_Seq_1_finalChan);
 148              		.loc 1 130 0
 149 000a 6078     		ldrb	r0, [r4, #1]	@ zero_extendqisi2
 150 000c FFF7FEFF 		bl	CyDmaClearPendingDrq
 151              	.LVL9:
 131:.\Generated_Source\PSoC5/ADC_SAR_Seq_1.c ****     
 132:.\Generated_Source\PSoC5/ADC_SAR_Seq_1.c ****     
 133:.\Generated_Source\PSoC5/ADC_SAR_Seq_1.c ****     /* Provides initialization procedure for the TempBuf DMA
 134:.\Generated_Source\PSoC5/ADC_SAR_Seq_1.c ****     * Configure this Td as follows:
ARM GAS  C:\Users\chris\AppData\Local\Temp\ccQmEsxZ.s 			page 6


 135:.\Generated_Source\PSoC5/ADC_SAR_Seq_1.c ****     *  - The TD is looping on itself
 136:.\Generated_Source\PSoC5/ADC_SAR_Seq_1.c ****     *  - Increment the destination address, but not the source address
 137:.\Generated_Source\PSoC5/ADC_SAR_Seq_1.c ****     */
 138:.\Generated_Source\PSoC5/ADC_SAR_Seq_1.c **** 
 139:.\Generated_Source\PSoC5/ADC_SAR_Seq_1.c ****     if (ADC_SAR_Seq_1_tempTD == DMA_INVALID_TD)
 152              		.loc 1 139 0
 153 0010 294B     		ldr	r3, .L13+4
 154 0012 1B78     		ldrb	r3, [r3]	@ zero_extendqisi2
 155 0014 FF2B     		cmp	r3, #255
 156 0016 03D1     		bne	.L10
 140:.\Generated_Source\PSoC5/ADC_SAR_Seq_1.c ****     {
 141:.\Generated_Source\PSoC5/ADC_SAR_Seq_1.c ****         ADC_SAR_Seq_1_tempTD = CyDmaTdAllocate();
 157              		.loc 1 141 0
 158 0018 FFF7FEFF 		bl	CyDmaTdAllocate
 159              	.LVL10:
 160 001c 264B     		ldr	r3, .L13+4
 161 001e 1870     		strb	r0, [r3]
 162              	.L10:
 142:.\Generated_Source\PSoC5/ADC_SAR_Seq_1.c ****     }
 143:.\Generated_Source\PSoC5/ADC_SAR_Seq_1.c **** 
 144:.\Generated_Source\PSoC5/ADC_SAR_Seq_1.c ****     (void) CyDmaTdSetConfiguration(ADC_SAR_Seq_1_tempTD, ADC_SAR_Seq_1_TEMP_TRANSFER_COUNT,
 163              		.loc 1 144 0
 164 0020 254D     		ldr	r5, .L13+4
 165 0022 2A78     		ldrb	r2, [r5]	@ zero_extendqisi2
 166 0024 1046     		mov	r0, r2
 167 0026 0221     		movs	r1, #2
 168 0028 0623     		movs	r3, #6
 169 002a FFF7FEFF 		bl	CyDmaTdSetConfiguration
 170              	.LVL11:
 145:.\Generated_Source\PSoC5/ADC_SAR_Seq_1.c ****         ADC_SAR_Seq_1_tempTD, ((uint8)ADC_SAR_Seq_1_TempBuf__TD_TERMOUT_EN | (uint8)TD_INC_DST_ADR)
 146:.\Generated_Source\PSoC5/ADC_SAR_Seq_1.c **** 
 147:.\Generated_Source\PSoC5/ADC_SAR_Seq_1.c ****     /* From the SAR to the TempArray */
 148:.\Generated_Source\PSoC5/ADC_SAR_Seq_1.c ****     (void) CyDmaTdSetAddress(ADC_SAR_Seq_1_tempTD, (uint16)(LO16((uint32)ADC_SAR_Seq_1_SAR_DATA_ADD
 171              		.loc 1 148 0
 172 002e 214E     		ldr	r6, .L13
 173 0030 341D     		adds	r4, r6, #4
 174 0032 A4B2     		uxth	r4, r4
 175 0034 2878     		ldrb	r0, [r5]	@ zero_extendqisi2
 176 0036 45F6A031 		movw	r1, #23456
 177 003a 2246     		mov	r2, r4
 178 003c FFF7FEFF 		bl	CyDmaTdSetAddress
 179              	.LVL12:
 149:.\Generated_Source\PSoC5/ADC_SAR_Seq_1.c ****         (uint16)(LO16((uint32)ADC_SAR_Seq_1_tempArray)));
 150:.\Generated_Source\PSoC5/ADC_SAR_Seq_1.c **** 
 151:.\Generated_Source\PSoC5/ADC_SAR_Seq_1.c ****     /* Associate the TD with the channel */
 152:.\Generated_Source\PSoC5/ADC_SAR_Seq_1.c ****     (void) CyDmaChSetInitialTd(ADC_SAR_Seq_1_tempChan, ADC_SAR_Seq_1_tempTD);
 180              		.loc 1 152 0
 181 0040 3078     		ldrb	r0, [r6]	@ zero_extendqisi2
 182 0042 2978     		ldrb	r1, [r5]	@ zero_extendqisi2
 183 0044 FFF7FEFF 		bl	CyDmaChSetInitialTd
 184              	.LVL13:
 153:.\Generated_Source\PSoC5/ADC_SAR_Seq_1.c **** 
 154:.\Generated_Source\PSoC5/ADC_SAR_Seq_1.c **** 
 155:.\Generated_Source\PSoC5/ADC_SAR_Seq_1.c ****     /* Provides initialization procedure for the FinalBuf DMA
 156:.\Generated_Source\PSoC5/ADC_SAR_Seq_1.c ****     * Configure this Td as follows:
 157:.\Generated_Source\PSoC5/ADC_SAR_Seq_1.c ****     *  - The TD is looping on itself
 158:.\Generated_Source\PSoC5/ADC_SAR_Seq_1.c ****     *  - Increment the source and destination address
ARM GAS  C:\Users\chris\AppData\Local\Temp\ccQmEsxZ.s 			page 7


 159:.\Generated_Source\PSoC5/ADC_SAR_Seq_1.c ****     */
 160:.\Generated_Source\PSoC5/ADC_SAR_Seq_1.c **** 
 161:.\Generated_Source\PSoC5/ADC_SAR_Seq_1.c ****     if (ADC_SAR_Seq_1_finalTD == DMA_INVALID_TD)
 185              		.loc 1 161 0
 186 0048 6B78     		ldrb	r3, [r5, #1]	@ zero_extendqisi2
 187 004a FF2B     		cmp	r3, #255
 188 004c 02D1     		bne	.L11
 162:.\Generated_Source\PSoC5/ADC_SAR_Seq_1.c ****     {
 163:.\Generated_Source\PSoC5/ADC_SAR_Seq_1.c ****         ADC_SAR_Seq_1_finalTD = CyDmaTdAllocate();
 189              		.loc 1 163 0
 190 004e FFF7FEFF 		bl	CyDmaTdAllocate
 191              	.LVL14:
 192 0052 6870     		strb	r0, [r5, #1]
 193              	.L11:
 164:.\Generated_Source\PSoC5/ADC_SAR_Seq_1.c ****     }
 165:.\Generated_Source\PSoC5/ADC_SAR_Seq_1.c ****     
 166:.\Generated_Source\PSoC5/ADC_SAR_Seq_1.c ****     (void) CyDmaTdSetConfiguration(ADC_SAR_Seq_1_finalTD, (ADC_SAR_Seq_1_FINAL_BYTES_PER_BURST),
 194              		.loc 1 166 0
 195 0054 184D     		ldr	r5, .L13+4
 196 0056 6A78     		ldrb	r2, [r5, #1]	@ zero_extendqisi2
 197 0058 1046     		mov	r0, r2
 198 005a 0221     		movs	r1, #2
 199 005c 0723     		movs	r3, #7
 200 005e FFF7FEFF 		bl	CyDmaTdSetConfiguration
 201              	.LVL15:
 167:.\Generated_Source\PSoC5/ADC_SAR_Seq_1.c ****         ADC_SAR_Seq_1_finalTD, ((uint8)(ADC_SAR_Seq_1_FinalBuf__TD_TERMOUT_EN) | (uint8)TD_INC_SRC_
 168:.\Generated_Source\PSoC5/ADC_SAR_Seq_1.c ****             (uint8)TD_INC_DST_ADR));
 169:.\Generated_Source\PSoC5/ADC_SAR_Seq_1.c **** 
 170:.\Generated_Source\PSoC5/ADC_SAR_Seq_1.c ****     /* From the the TempArray to Final Array */
 171:.\Generated_Source\PSoC5/ADC_SAR_Seq_1.c ****     (void) CyDmaTdSetAddress(ADC_SAR_Seq_1_finalTD, (uint16)(LO16((uint32)ADC_SAR_Seq_1_tempArray))
 202              		.loc 1 171 0
 203 0062 6878     		ldrb	r0, [r5, #1]	@ zero_extendqisi2
 204 0064 2146     		mov	r1, r4
 205 0066 154A     		ldr	r2, .L13+8
 206 0068 92B2     		uxth	r2, r2
 207 006a FFF7FEFF 		bl	CyDmaTdSetAddress
 208              	.LVL16:
 172:.\Generated_Source\PSoC5/ADC_SAR_Seq_1.c ****         (uint16)(LO16((uint32)ADC_SAR_Seq_1_finalArray)));
 173:.\Generated_Source\PSoC5/ADC_SAR_Seq_1.c **** 
 174:.\Generated_Source\PSoC5/ADC_SAR_Seq_1.c ****     /* Associate the TD with the channel */
 175:.\Generated_Source\PSoC5/ADC_SAR_Seq_1.c ****     (void) CyDmaChSetInitialTd(ADC_SAR_Seq_1_finalChan, ADC_SAR_Seq_1_finalTD);
 209              		.loc 1 175 0
 210 006e 114C     		ldr	r4, .L13
 211 0070 6078     		ldrb	r0, [r4, #1]	@ zero_extendqisi2
 212 0072 6978     		ldrb	r1, [r5, #1]	@ zero_extendqisi2
 213 0074 FFF7FEFF 		bl	CyDmaChSetInitialTd
 214              	.LVL17:
 176:.\Generated_Source\PSoC5/ADC_SAR_Seq_1.c ****     
 177:.\Generated_Source\PSoC5/ADC_SAR_Seq_1.c ****     (void) CyDmaChEnable(ADC_SAR_Seq_1_tempChan, 1u);
 215              		.loc 1 177 0
 216 0078 2078     		ldrb	r0, [r4]	@ zero_extendqisi2
 217 007a 0121     		movs	r1, #1
 218 007c FFF7FEFF 		bl	CyDmaChEnable
 219              	.LVL18:
 178:.\Generated_Source\PSoC5/ADC_SAR_Seq_1.c ****     (void) CyDmaChEnable(ADC_SAR_Seq_1_finalChan, 1u);
 220              		.loc 1 178 0
 221 0080 6078     		ldrb	r0, [r4, #1]	@ zero_extendqisi2
ARM GAS  C:\Users\chris\AppData\Local\Temp\ccQmEsxZ.s 			page 8


 222 0082 0121     		movs	r1, #1
 223 0084 FFF7FEFF 		bl	CyDmaChEnable
 224              	.LVL19:
 179:.\Generated_Source\PSoC5/ADC_SAR_Seq_1.c **** 
 180:.\Generated_Source\PSoC5/ADC_SAR_Seq_1.c ****     /* Enable Counter and give Enable pulse to set an address of the last channel */
 181:.\Generated_Source\PSoC5/ADC_SAR_Seq_1.c ****     enableInterrupts = CyEnterCriticalSection();
 225              		.loc 1 181 0
 226 0088 FFF7FEFF 		bl	CyEnterCriticalSection
 227              	.LVL20:
 182:.\Generated_Source\PSoC5/ADC_SAR_Seq_1.c ****     ADC_SAR_Seq_1_CYCLE_COUNTER_AUX_CONTROL_REG |= ((uint8)(ADC_SAR_Seq_1_CYCLE_COUNTER_ENABLE));
 228              		.loc 1 182 0
 229 008c 0C4A     		ldr	r2, .L13+12
 230 008e 1378     		ldrb	r3, [r2]	@ zero_extendqisi2
 231 0090 43F02003 		orr	r3, r3, #32
 232 0094 1370     		strb	r3, [r2]
 183:.\Generated_Source\PSoC5/ADC_SAR_Seq_1.c ****     CyExitCriticalSection(enableInterrupts);
 233              		.loc 1 183 0
 234 0096 FFF7FEFF 		bl	CyExitCriticalSection
 235              	.LVL21:
 184:.\Generated_Source\PSoC5/ADC_SAR_Seq_1.c **** 
 185:.\Generated_Source\PSoC5/ADC_SAR_Seq_1.c ****     /* Enable FSM of the Base Component */
 186:.\Generated_Source\PSoC5/ADC_SAR_Seq_1.c ****     ADC_SAR_Seq_1_CONTROL_REG |= ((uint8)(ADC_SAR_Seq_1_BASE_COMPONENT_ENABLE));
 236              		.loc 1 186 0
 237 009a 0A4B     		ldr	r3, .L13+16
 238 009c 1A78     		ldrb	r2, [r3]	@ zero_extendqisi2
 239 009e 42F00102 		orr	r2, r2, #1
 240 00a2 1A70     		strb	r2, [r3]
 187:.\Generated_Source\PSoC5/ADC_SAR_Seq_1.c ****     ADC_SAR_Seq_1_CONTROL_REG |= ((uint8)(ADC_SAR_Seq_1_LOAD_COUNTER_PERIOD));
 241              		.loc 1 187 0
 242 00a4 1A78     		ldrb	r2, [r3]	@ zero_extendqisi2
 243 00a6 42F00202 		orr	r2, r2, #2
 244 00aa 1A70     		strb	r2, [r3]
 188:.\Generated_Source\PSoC5/ADC_SAR_Seq_1.c **** 
 189:.\Generated_Source\PSoC5/ADC_SAR_Seq_1.c ****     #if(ADC_SAR_Seq_1_IRQ_REMOVE == 0u)
 190:.\Generated_Source\PSoC5/ADC_SAR_Seq_1.c ****         /* Clear a pending interrupt */
 191:.\Generated_Source\PSoC5/ADC_SAR_Seq_1.c ****         CyIntClearPending(ADC_SAR_Seq_1_INTC_NUMBER);
 245              		.loc 1 191 0
 246 00ac 0422     		movs	r2, #4
 247 00ae 064B     		ldr	r3, .L13+20
 248 00b0 1A60     		str	r2, [r3]
 249 00b2 70BD     		pop	{r4, r5, r6, pc}
 250              	.L14:
 251              		.align	2
 252              	.L13:
 253 00b4 00000000 		.word	.LANCHOR0
 254 00b8 00000000 		.word	.LANCHOR1
 255 00bc 00000000 		.word	ADC_SAR_Seq_1_finalArray
 256 00c0 93640040 		.word	1073767571
 257 00c4 72640040 		.word	1073767538
 258 00c8 80E200E0 		.word	-536812928
 259              		.cfi_endproc
 260              	.LFE2:
 261              		.size	ADC_SAR_Seq_1_Enable, .-ADC_SAR_Seq_1_Enable
 262              		.section	.text.ADC_SAR_Seq_1_Start,"ax",%progbits
 263              		.align	2
 264              		.global	ADC_SAR_Seq_1_Start
 265              		.thumb
ARM GAS  C:\Users\chris\AppData\Local\Temp\ccQmEsxZ.s 			page 9


 266              		.thumb_func
 267              		.type	ADC_SAR_Seq_1_Start, %function
 268              	ADC_SAR_Seq_1_Start:
 269              	.LFB3:
 192:.\Generated_Source\PSoC5/ADC_SAR_Seq_1.c ****     #endif   /* End ADC_SAR_Seq_1_IRQ_REMOVE */
 193:.\Generated_Source\PSoC5/ADC_SAR_Seq_1.c **** }
 194:.\Generated_Source\PSoC5/ADC_SAR_Seq_1.c **** 
 195:.\Generated_Source\PSoC5/ADC_SAR_Seq_1.c **** 
 196:.\Generated_Source\PSoC5/ADC_SAR_Seq_1.c **** /*******************************************************************************
 197:.\Generated_Source\PSoC5/ADC_SAR_Seq_1.c **** * Function Name: ADC_SAR_Seq_1_Start
 198:.\Generated_Source\PSoC5/ADC_SAR_Seq_1.c **** ********************************************************************************
 199:.\Generated_Source\PSoC5/ADC_SAR_Seq_1.c **** *
 200:.\Generated_Source\PSoC5/ADC_SAR_Seq_1.c **** * Summary:
 201:.\Generated_Source\PSoC5/ADC_SAR_Seq_1.c **** *  Starts component
 202:.\Generated_Source\PSoC5/ADC_SAR_Seq_1.c **** *
 203:.\Generated_Source\PSoC5/ADC_SAR_Seq_1.c **** * Parameters:
 204:.\Generated_Source\PSoC5/ADC_SAR_Seq_1.c **** *  None.
 205:.\Generated_Source\PSoC5/ADC_SAR_Seq_1.c **** *
 206:.\Generated_Source\PSoC5/ADC_SAR_Seq_1.c **** * Return:
 207:.\Generated_Source\PSoC5/ADC_SAR_Seq_1.c **** *  None.
 208:.\Generated_Source\PSoC5/ADC_SAR_Seq_1.c **** *
 209:.\Generated_Source\PSoC5/ADC_SAR_Seq_1.c **** * Side Effects:
 210:.\Generated_Source\PSoC5/ADC_SAR_Seq_1.c **** *  If the initVar variable is already set, this function only calls the 
 211:.\Generated_Source\PSoC5/ADC_SAR_Seq_1.c **** *  ADC_SAR_Seq_1_Enable() function
 212:.\Generated_Source\PSoC5/ADC_SAR_Seq_1.c **** *
 213:.\Generated_Source\PSoC5/ADC_SAR_Seq_1.c **** * Reentrant:
 214:.\Generated_Source\PSoC5/ADC_SAR_Seq_1.c **** *  No.
 215:.\Generated_Source\PSoC5/ADC_SAR_Seq_1.c **** *
 216:.\Generated_Source\PSoC5/ADC_SAR_Seq_1.c **** *******************************************************************************/
 217:.\Generated_Source\PSoC5/ADC_SAR_Seq_1.c **** void ADC_SAR_Seq_1_Start(void)
 218:.\Generated_Source\PSoC5/ADC_SAR_Seq_1.c **** {
 270              		.loc 1 218 0
 271              		.cfi_startproc
 272              		@ args = 0, pretend = 0, frame = 0
 273              		@ frame_needed = 0, uses_anonymous_args = 0
 274 0000 08B5     		push	{r3, lr}
 275              		.cfi_def_cfa_offset 8
 276              		.cfi_offset 3, -8
 277              		.cfi_offset 14, -4
 219:.\Generated_Source\PSoC5/ADC_SAR_Seq_1.c ****     if(ADC_SAR_Seq_1_initVar == 0u)
 278              		.loc 1 219 0
 279 0002 074B     		ldr	r3, .L18
 280 0004 9B68     		ldr	r3, [r3, #8]
 281 0006 23B9     		cbnz	r3, .L16
 220:.\Generated_Source\PSoC5/ADC_SAR_Seq_1.c ****     {
 221:.\Generated_Source\PSoC5/ADC_SAR_Seq_1.c ****         ADC_SAR_Seq_1_Init();
 282              		.loc 1 221 0
 283 0008 FFF7FEFF 		bl	ADC_SAR_Seq_1_Init
 284              	.LVL22:
 222:.\Generated_Source\PSoC5/ADC_SAR_Seq_1.c ****         ADC_SAR_Seq_1_initVar = 1u;
 285              		.loc 1 222 0
 286 000c 0122     		movs	r2, #1
 287 000e 044B     		ldr	r3, .L18
 288 0010 9A60     		str	r2, [r3, #8]
 289              	.L16:
 223:.\Generated_Source\PSoC5/ADC_SAR_Seq_1.c ****     }
 224:.\Generated_Source\PSoC5/ADC_SAR_Seq_1.c **** 
ARM GAS  C:\Users\chris\AppData\Local\Temp\ccQmEsxZ.s 			page 10


 225:.\Generated_Source\PSoC5/ADC_SAR_Seq_1.c ****     ADC_SAR_Seq_1_Enable();
 290              		.loc 1 225 0
 291 0012 FFF7FEFF 		bl	ADC_SAR_Seq_1_Enable
 292              	.LVL23:
 226:.\Generated_Source\PSoC5/ADC_SAR_Seq_1.c ****     ADC_SAR_Seq_1_SAR_Start();
 293              		.loc 1 226 0
 294 0016 FFF7FEFF 		bl	ADC_SAR_Seq_1_SAR_Start
 295              	.LVL24:
 227:.\Generated_Source\PSoC5/ADC_SAR_Seq_1.c ****     (void) CY_GET_REG8(ADC_SAR_Seq_1_STATUS_PTR);
 296              		.loc 1 227 0
 297 001a 024B     		ldr	r3, .L18+4
 298 001c 1B78     		ldrb	r3, [r3]	@ zero_extendqisi2
 299 001e 08BD     		pop	{r3, pc}
 300              	.L19:
 301              		.align	2
 302              	.L18:
 303 0020 00000000 		.word	.LANCHOR0
 304 0024 64640040 		.word	1073767524
 305              		.cfi_endproc
 306              	.LFE3:
 307              		.size	ADC_SAR_Seq_1_Start, .-ADC_SAR_Seq_1_Start
 308              		.section	.text.ADC_SAR_Seq_1_Stop,"ax",%progbits
 309              		.align	2
 310              		.global	ADC_SAR_Seq_1_Stop
 311              		.thumb
 312              		.thumb_func
 313              		.type	ADC_SAR_Seq_1_Stop, %function
 314              	ADC_SAR_Seq_1_Stop:
 315              	.LFB4:
 228:.\Generated_Source\PSoC5/ADC_SAR_Seq_1.c **** 
 229:.\Generated_Source\PSoC5/ADC_SAR_Seq_1.c **** }
 230:.\Generated_Source\PSoC5/ADC_SAR_Seq_1.c **** 
 231:.\Generated_Source\PSoC5/ADC_SAR_Seq_1.c **** 
 232:.\Generated_Source\PSoC5/ADC_SAR_Seq_1.c **** /*******************************************************************************
 233:.\Generated_Source\PSoC5/ADC_SAR_Seq_1.c **** * Function Name: ADC_SAR_Seq_1_Stop
 234:.\Generated_Source\PSoC5/ADC_SAR_Seq_1.c **** ********************************************************************************
 235:.\Generated_Source\PSoC5/ADC_SAR_Seq_1.c **** *
 236:.\Generated_Source\PSoC5/ADC_SAR_Seq_1.c **** * Summary:
 237:.\Generated_Source\PSoC5/ADC_SAR_Seq_1.c **** *  Stops component.
 238:.\Generated_Source\PSoC5/ADC_SAR_Seq_1.c **** *
 239:.\Generated_Source\PSoC5/ADC_SAR_Seq_1.c **** * Parameters:
 240:.\Generated_Source\PSoC5/ADC_SAR_Seq_1.c **** *  None.
 241:.\Generated_Source\PSoC5/ADC_SAR_Seq_1.c **** *
 242:.\Generated_Source\PSoC5/ADC_SAR_Seq_1.c **** * Return:
 243:.\Generated_Source\PSoC5/ADC_SAR_Seq_1.c **** *  None.
 244:.\Generated_Source\PSoC5/ADC_SAR_Seq_1.c **** *
 245:.\Generated_Source\PSoC5/ADC_SAR_Seq_1.c **** * Side Effects:
 246:.\Generated_Source\PSoC5/ADC_SAR_Seq_1.c **** *  None.
 247:.\Generated_Source\PSoC5/ADC_SAR_Seq_1.c **** *
 248:.\Generated_Source\PSoC5/ADC_SAR_Seq_1.c **** * Reentrant:
 249:.\Generated_Source\PSoC5/ADC_SAR_Seq_1.c **** *  No.
 250:.\Generated_Source\PSoC5/ADC_SAR_Seq_1.c **** *
 251:.\Generated_Source\PSoC5/ADC_SAR_Seq_1.c **** *******************************************************************************/
 252:.\Generated_Source\PSoC5/ADC_SAR_Seq_1.c **** void ADC_SAR_Seq_1_Stop(void)
 253:.\Generated_Source\PSoC5/ADC_SAR_Seq_1.c **** {
 316              		.loc 1 253 0
 317              		.cfi_startproc
ARM GAS  C:\Users\chris\AppData\Local\Temp\ccQmEsxZ.s 			page 11


 318              		@ args = 0, pretend = 0, frame = 0
 319              		@ frame_needed = 0, uses_anonymous_args = 0
 320 0000 08B5     		push	{r3, lr}
 321              		.cfi_def_cfa_offset 8
 322              		.cfi_offset 3, -8
 323              		.cfi_offset 14, -4
 254:.\Generated_Source\PSoC5/ADC_SAR_Seq_1.c ****     ADC_SAR_Seq_1_SAR_Stop();
 324              		.loc 1 254 0
 325 0002 FFF7FEFF 		bl	ADC_SAR_Seq_1_SAR_Stop
 326              	.LVL25:
 255:.\Generated_Source\PSoC5/ADC_SAR_Seq_1.c ****     ADC_SAR_Seq_1_Disable();
 327              		.loc 1 255 0
 328 0006 FFF7FEFF 		bl	ADC_SAR_Seq_1_Disable
 329              	.LVL26:
 330 000a 08BD     		pop	{r3, pc}
 331              		.cfi_endproc
 332              	.LFE4:
 333              		.size	ADC_SAR_Seq_1_Stop, .-ADC_SAR_Seq_1_Stop
 334              		.section	.text.ADC_SAR_Seq_1_StartConvert,"ax",%progbits
 335              		.align	2
 336              		.global	ADC_SAR_Seq_1_StartConvert
 337              		.thumb
 338              		.thumb_func
 339              		.type	ADC_SAR_Seq_1_StartConvert, %function
 340              	ADC_SAR_Seq_1_StartConvert:
 341              	.LFB5:
 256:.\Generated_Source\PSoC5/ADC_SAR_Seq_1.c **** }
 257:.\Generated_Source\PSoC5/ADC_SAR_Seq_1.c **** 
 258:.\Generated_Source\PSoC5/ADC_SAR_Seq_1.c **** #if(ADC_SAR_Seq_1_SAMPLE_MODE != ADC_SAR_Seq_1_SAMPLE_MODE_HW_TRIGGERED)
 259:.\Generated_Source\PSoC5/ADC_SAR_Seq_1.c **** 
 260:.\Generated_Source\PSoC5/ADC_SAR_Seq_1.c ****     /*******************************************************************************
 261:.\Generated_Source\PSoC5/ADC_SAR_Seq_1.c ****     * Function Name: ADC_SAR_Seq_1_StartConvert
 262:.\Generated_Source\PSoC5/ADC_SAR_Seq_1.c ****     ********************************************************************************
 263:.\Generated_Source\PSoC5/ADC_SAR_Seq_1.c ****     *
 264:.\Generated_Source\PSoC5/ADC_SAR_Seq_1.c ****     * Summary:
 265:.\Generated_Source\PSoC5/ADC_SAR_Seq_1.c ****     *  When the Sample Mode parameter is set to 'Free Running', the component will
 266:.\Generated_Source\PSoC5/ADC_SAR_Seq_1.c ****     * operate in a continuous mode. The channels will be scanned continuously until
 267:.\Generated_Source\PSoC5/ADC_SAR_Seq_1.c ****     * _StopConvert()or  _Stop() is called
 268:.\Generated_Source\PSoC5/ADC_SAR_Seq_1.c ****     *
 269:.\Generated_Source\PSoC5/ADC_SAR_Seq_1.c ****     * Parameters:
 270:.\Generated_Source\PSoC5/ADC_SAR_Seq_1.c ****     *  None.
 271:.\Generated_Source\PSoC5/ADC_SAR_Seq_1.c ****     *
 272:.\Generated_Source\PSoC5/ADC_SAR_Seq_1.c ****     * Return:
 273:.\Generated_Source\PSoC5/ADC_SAR_Seq_1.c ****     *  None.
 274:.\Generated_Source\PSoC5/ADC_SAR_Seq_1.c ****     *
 275:.\Generated_Source\PSoC5/ADC_SAR_Seq_1.c ****     * Side Effects:
 276:.\Generated_Source\PSoC5/ADC_SAR_Seq_1.c ****     *  Calling ADC_SAR_Seq_1_StartConvert() disables the external SOC pin.
 277:.\Generated_Source\PSoC5/ADC_SAR_Seq_1.c ****     *
 278:.\Generated_Source\PSoC5/ADC_SAR_Seq_1.c ****     * Reentrant:
 279:.\Generated_Source\PSoC5/ADC_SAR_Seq_1.c ****     *  No.
 280:.\Generated_Source\PSoC5/ADC_SAR_Seq_1.c ****     *
 281:.\Generated_Source\PSoC5/ADC_SAR_Seq_1.c ****     *******************************************************************************/
 282:.\Generated_Source\PSoC5/ADC_SAR_Seq_1.c ****     void ADC_SAR_Seq_1_StartConvert(void)
 283:.\Generated_Source\PSoC5/ADC_SAR_Seq_1.c ****     {
 342              		.loc 1 283 0
 343              		.cfi_startproc
 344              		@ args = 0, pretend = 0, frame = 0
ARM GAS  C:\Users\chris\AppData\Local\Temp\ccQmEsxZ.s 			page 12


 345              		@ frame_needed = 0, uses_anonymous_args = 0
 346 0000 08B5     		push	{r3, lr}
 347              		.cfi_def_cfa_offset 8
 348              		.cfi_offset 3, -8
 349              		.cfi_offset 14, -4
 284:.\Generated_Source\PSoC5/ADC_SAR_Seq_1.c ****         #if(ADC_SAR_Seq_1_SAMPLE_MODE != ADC_SAR_Seq_1_SAMPLE_MODE_FREE_RUNNING)
 285:.\Generated_Source\PSoC5/ADC_SAR_Seq_1.c **** 
 286:.\Generated_Source\PSoC5/ADC_SAR_Seq_1.c ****             ADC_SAR_Seq_1_CONTROL_REG |= ((uint8)(ADC_SAR_Seq_1_SOFTWARE_SOC_PULSE));
 287:.\Generated_Source\PSoC5/ADC_SAR_Seq_1.c **** 
 288:.\Generated_Source\PSoC5/ADC_SAR_Seq_1.c ****         #else
 289:.\Generated_Source\PSoC5/ADC_SAR_Seq_1.c **** 
 290:.\Generated_Source\PSoC5/ADC_SAR_Seq_1.c ****             ADC_SAR_Seq_1_SAR_StartConvert();
 350              		.loc 1 290 0
 351 0002 FFF7FEFF 		bl	ADC_SAR_Seq_1_SAR_StartConvert
 352              	.LVL27:
 353 0006 08BD     		pop	{r3, pc}
 354              		.cfi_endproc
 355              	.LFE5:
 356              		.size	ADC_SAR_Seq_1_StartConvert, .-ADC_SAR_Seq_1_StartConvert
 357              		.section	.text.ADC_SAR_Seq_1_StopConvert,"ax",%progbits
 358              		.align	2
 359              		.global	ADC_SAR_Seq_1_StopConvert
 360              		.thumb
 361              		.thumb_func
 362              		.type	ADC_SAR_Seq_1_StopConvert, %function
 363              	ADC_SAR_Seq_1_StopConvert:
 364              	.LFB6:
 291:.\Generated_Source\PSoC5/ADC_SAR_Seq_1.c **** 
 292:.\Generated_Source\PSoC5/ADC_SAR_Seq_1.c ****         #endif /*
 293:.\Generated_Source\PSoC5/ADC_SAR_Seq_1.c ****                  #if(ADC_SAR_Seq_1_SAMPLE_MODE !=
 294:.\Generated_Source\PSoC5/ADC_SAR_Seq_1.c ****                  ADC_SAR_Seq_1_SAMPLE_MODE_FREE_RUNNING)
 295:.\Generated_Source\PSoC5/ADC_SAR_Seq_1.c ****                */
 296:.\Generated_Source\PSoC5/ADC_SAR_Seq_1.c ****     }
 297:.\Generated_Source\PSoC5/ADC_SAR_Seq_1.c **** 
 298:.\Generated_Source\PSoC5/ADC_SAR_Seq_1.c **** 
 299:.\Generated_Source\PSoC5/ADC_SAR_Seq_1.c ****     /*******************************************************************************
 300:.\Generated_Source\PSoC5/ADC_SAR_Seq_1.c ****     * Function Name: ADC_SAR_Seq_1_StopConvert
 301:.\Generated_Source\PSoC5/ADC_SAR_Seq_1.c ****     ********************************************************************************
 302:.\Generated_Source\PSoC5/ADC_SAR_Seq_1.c ****     *
 303:.\Generated_Source\PSoC5/ADC_SAR_Seq_1.c ****     * Summary:
 304:.\Generated_Source\PSoC5/ADC_SAR_Seq_1.c ****     *  Forces the component to stop all conversions
 305:.\Generated_Source\PSoC5/ADC_SAR_Seq_1.c ****     *
 306:.\Generated_Source\PSoC5/ADC_SAR_Seq_1.c ****     * Parameters:
 307:.\Generated_Source\PSoC5/ADC_SAR_Seq_1.c ****     *  None.
 308:.\Generated_Source\PSoC5/ADC_SAR_Seq_1.c ****     *
 309:.\Generated_Source\PSoC5/ADC_SAR_Seq_1.c ****     * Return:
 310:.\Generated_Source\PSoC5/ADC_SAR_Seq_1.c ****     *  None.
 311:.\Generated_Source\PSoC5/ADC_SAR_Seq_1.c ****     *
 312:.\Generated_Source\PSoC5/ADC_SAR_Seq_1.c ****     * Side Effects:
 313:.\Generated_Source\PSoC5/ADC_SAR_Seq_1.c ****     *  In free-running and software trigger mode, this function sets a software 
 314:.\Generated_Source\PSoC5/ADC_SAR_Seq_1.c ****     *  version of the SOC to low level and switches the SOC source to hardware SOC 
 315:.\Generated_Source\PSoC5/ADC_SAR_Seq_1.c ****     *  input (Hardware trigger).
 316:.\Generated_Source\PSoC5/ADC_SAR_Seq_1.c ****     *
 317:.\Generated_Source\PSoC5/ADC_SAR_Seq_1.c ****     * Reentrant:
 318:.\Generated_Source\PSoC5/ADC_SAR_Seq_1.c ****     *  No.
 319:.\Generated_Source\PSoC5/ADC_SAR_Seq_1.c ****     *
 320:.\Generated_Source\PSoC5/ADC_SAR_Seq_1.c ****     *******************************************************************************/
ARM GAS  C:\Users\chris\AppData\Local\Temp\ccQmEsxZ.s 			page 13


 321:.\Generated_Source\PSoC5/ADC_SAR_Seq_1.c ****     void ADC_SAR_Seq_1_StopConvert(void)
 322:.\Generated_Source\PSoC5/ADC_SAR_Seq_1.c ****     {
 365              		.loc 1 322 0
 366              		.cfi_startproc
 367              		@ args = 0, pretend = 0, frame = 0
 368              		@ frame_needed = 0, uses_anonymous_args = 0
 369 0000 08B5     		push	{r3, lr}
 370              		.cfi_def_cfa_offset 8
 371              		.cfi_offset 3, -8
 372              		.cfi_offset 14, -4
 323:.\Generated_Source\PSoC5/ADC_SAR_Seq_1.c ****         ADC_SAR_Seq_1_SAR_StopConvert();
 373              		.loc 1 323 0
 374 0002 FFF7FEFF 		bl	ADC_SAR_Seq_1_SAR_StopConvert
 375              	.LVL28:
 376 0006 08BD     		pop	{r3, pc}
 377              		.cfi_endproc
 378              	.LFE6:
 379              		.size	ADC_SAR_Seq_1_StopConvert, .-ADC_SAR_Seq_1_StopConvert
 380              		.section	.text.ADC_SAR_Seq_1_IsEndConversion,"ax",%progbits
 381              		.align	2
 382              		.global	ADC_SAR_Seq_1_IsEndConversion
 383              		.thumb
 384              		.thumb_func
 385              		.type	ADC_SAR_Seq_1_IsEndConversion, %function
 386              	ADC_SAR_Seq_1_IsEndConversion:
 387              	.LFB7:
 324:.\Generated_Source\PSoC5/ADC_SAR_Seq_1.c ****     }
 325:.\Generated_Source\PSoC5/ADC_SAR_Seq_1.c **** 
 326:.\Generated_Source\PSoC5/ADC_SAR_Seq_1.c **** #endif /* ADC_SAR_Seq_1_SAMPLE_MODE != ADC_SAR_Seq_1_SAMPLE_MODE_HW_TRIGGERED */
 327:.\Generated_Source\PSoC5/ADC_SAR_Seq_1.c **** 
 328:.\Generated_Source\PSoC5/ADC_SAR_Seq_1.c **** 
 329:.\Generated_Source\PSoC5/ADC_SAR_Seq_1.c **** /*******************************************************************************
 330:.\Generated_Source\PSoC5/ADC_SAR_Seq_1.c **** * Function Name: ADC_SAR_Seq_1_IsEndConversion
 331:.\Generated_Source\PSoC5/ADC_SAR_Seq_1.c **** ********************************************************************************
 332:.\Generated_Source\PSoC5/ADC_SAR_Seq_1.c **** *
 333:.\Generated_Source\PSoC5/ADC_SAR_Seq_1.c **** * Summary:
 334:.\Generated_Source\PSoC5/ADC_SAR_Seq_1.c **** *  Checks for ADC end of conversion for the case one channel and end of scan
 335:.\Generated_Source\PSoC5/ADC_SAR_Seq_1.c **** *  for the case of multiple channels
 336:.\Generated_Source\PSoC5/ADC_SAR_Seq_1.c **** *
 337:.\Generated_Source\PSoC5/ADC_SAR_Seq_1.c **** * Parameters:
 338:.\Generated_Source\PSoC5/ADC_SAR_Seq_1.c **** *  retMode: Check conversion return mode
 339:.\Generated_Source\PSoC5/ADC_SAR_Seq_1.c **** *   Values:
 340:.\Generated_Source\PSoC5/ADC_SAR_Seq_1.c **** *         - ADC_SAR_Seq_1_RETURN_STATUS      - Immediately returns the 
 341:.\Generated_Source\PSoC5/ADC_SAR_Seq_1.c **** *                                                 status
 342:.\Generated_Source\PSoC5/ADC_SAR_Seq_1.c **** *         - ADC_SAR_Seq_1_WAIT_FOR_RESULT    - Does not return a result 
 343:.\Generated_Source\PSoC5/ADC_SAR_Seq_1.c **** *                                                 until the conversion 
 344:.\Generated_Source\PSoC5/ADC_SAR_Seq_1.c **** *                                                 is complete
 345:.\Generated_Source\PSoC5/ADC_SAR_Seq_1.c **** *
 346:.\Generated_Source\PSoC5/ADC_SAR_Seq_1.c **** * Return:
 347:.\Generated_Source\PSoC5/ADC_SAR_Seq_1.c **** *  If a nonzero value is returned, the last conversion is complete. If the 
 348:.\Generated_Source\PSoC5/ADC_SAR_Seq_1.c **** *  returned value is zero, the ADC_SAR_Seq is still calculating the last result
 349:.\Generated_Source\PSoC5/ADC_SAR_Seq_1.c **** *
 350:.\Generated_Source\PSoC5/ADC_SAR_Seq_1.c **** * Side Effects:
 351:.\Generated_Source\PSoC5/ADC_SAR_Seq_1.c **** *  This function reads the end of conversion status, which is cleared on read
 352:.\Generated_Source\PSoC5/ADC_SAR_Seq_1.c **** *
 353:.\Generated_Source\PSoC5/ADC_SAR_Seq_1.c **** * Reentrant:
 354:.\Generated_Source\PSoC5/ADC_SAR_Seq_1.c **** *  No.
ARM GAS  C:\Users\chris\AppData\Local\Temp\ccQmEsxZ.s 			page 14


 355:.\Generated_Source\PSoC5/ADC_SAR_Seq_1.c **** *
 356:.\Generated_Source\PSoC5/ADC_SAR_Seq_1.c **** *******************************************************************************/
 357:.\Generated_Source\PSoC5/ADC_SAR_Seq_1.c **** uint32 ADC_SAR_Seq_1_IsEndConversion(uint8 retMode)
 358:.\Generated_Source\PSoC5/ADC_SAR_Seq_1.c **** {
 388              		.loc 1 358 0
 389              		.cfi_startproc
 390              		@ args = 0, pretend = 0, frame = 0
 391              		@ frame_needed = 0, uses_anonymous_args = 0
 392              		@ link register save eliminated.
 393              	.LVL29:
 394              	.L28:
 359:.\Generated_Source\PSoC5/ADC_SAR_Seq_1.c ****     uint8 status;
 360:.\Generated_Source\PSoC5/ADC_SAR_Seq_1.c **** 
 361:.\Generated_Source\PSoC5/ADC_SAR_Seq_1.c ****     do
 362:.\Generated_Source\PSoC5/ADC_SAR_Seq_1.c ****     {
 363:.\Generated_Source\PSoC5/ADC_SAR_Seq_1.c ****       status = ADC_SAR_Seq_1_STATUS_REG;
 395              		.loc 1 363 0 discriminator 2
 396 0000 044B     		ldr	r3, .L29
 397 0002 1B78     		ldrb	r3, [r3]	@ zero_extendqisi2
 398              	.LVL30:
 364:.\Generated_Source\PSoC5/ADC_SAR_Seq_1.c ****     } while ((status == 0u) && (retMode == ADC_SAR_Seq_1_WAIT_FOR_RESULT));
 399              		.loc 1 364 0 discriminator 2
 400 0004 03F0FF02 		and	r2, r3, #255
 401 0008 0BB9     		cbnz	r3, .L27
 402              		.loc 1 364 0 is_stmt 0 discriminator 1
 403 000a 0028     		cmp	r0, #0
 404 000c F8D0     		beq	.L28
 405              	.L27:
 365:.\Generated_Source\PSoC5/ADC_SAR_Seq_1.c **** 
 366:.\Generated_Source\PSoC5/ADC_SAR_Seq_1.c ****     return((uint32)status);
 367:.\Generated_Source\PSoC5/ADC_SAR_Seq_1.c **** }
 406              		.loc 1 367 0 is_stmt 1
 407 000e 1046     		mov	r0, r2
 408              	.LVL31:
 409 0010 7047     		bx	lr
 410              	.L30:
 411 0012 00BF     		.align	2
 412              	.L29:
 413 0014 64640040 		.word	1073767524
 414              		.cfi_endproc
 415              	.LFE7:
 416              		.size	ADC_SAR_Seq_1_IsEndConversion, .-ADC_SAR_Seq_1_IsEndConversion
 417              		.section	.text.ADC_SAR_Seq_1_GetResult16,"ax",%progbits
 418              		.align	2
 419              		.global	ADC_SAR_Seq_1_GetResult16
 420              		.thumb
 421              		.thumb_func
 422              		.type	ADC_SAR_Seq_1_GetResult16, %function
 423              	ADC_SAR_Seq_1_GetResult16:
 424              	.LFB8:
 368:.\Generated_Source\PSoC5/ADC_SAR_Seq_1.c **** 
 369:.\Generated_Source\PSoC5/ADC_SAR_Seq_1.c **** 
 370:.\Generated_Source\PSoC5/ADC_SAR_Seq_1.c **** /*******************************************************************************
 371:.\Generated_Source\PSoC5/ADC_SAR_Seq_1.c **** * Function Name: ADC_SAR_Seq_1_GetResult16
 372:.\Generated_Source\PSoC5/ADC_SAR_Seq_1.c **** ********************************************************************************
 373:.\Generated_Source\PSoC5/ADC_SAR_Seq_1.c **** *
 374:.\Generated_Source\PSoC5/ADC_SAR_Seq_1.c **** * Summary:
ARM GAS  C:\Users\chris\AppData\Local\Temp\ccQmEsxZ.s 			page 15


 375:.\Generated_Source\PSoC5/ADC_SAR_Seq_1.c **** *  Returns the ADC result for channel chan
 376:.\Generated_Source\PSoC5/ADC_SAR_Seq_1.c **** *
 377:.\Generated_Source\PSoC5/ADC_SAR_Seq_1.c **** * Parameters:
 378:.\Generated_Source\PSoC5/ADC_SAR_Seq_1.c **** *  chan: The ADC channel in which to return the result. The first channel is 0 
 379:.\Generated_Source\PSoC5/ADC_SAR_Seq_1.c **** *        and the last channel is the total number of channels - 1
 380:.\Generated_Source\PSoC5/ADC_SAR_Seq_1.c **** *
 381:.\Generated_Source\PSoC5/ADC_SAR_Seq_1.c **** * Return:
 382:.\Generated_Source\PSoC5/ADC_SAR_Seq_1.c **** *  Returns converted data as a signed 16-bit integer
 383:.\Generated_Source\PSoC5/ADC_SAR_Seq_1.c **** *
 384:.\Generated_Source\PSoC5/ADC_SAR_Seq_1.c **** * Side Effects:
 385:.\Generated_Source\PSoC5/ADC_SAR_Seq_1.c **** *  Converts the ADC counts to the 2's complement form
 386:.\Generated_Source\PSoC5/ADC_SAR_Seq_1.c **** *
 387:.\Generated_Source\PSoC5/ADC_SAR_Seq_1.c **** * Reentrant:
 388:.\Generated_Source\PSoC5/ADC_SAR_Seq_1.c **** *  No.
 389:.\Generated_Source\PSoC5/ADC_SAR_Seq_1.c **** *
 390:.\Generated_Source\PSoC5/ADC_SAR_Seq_1.c **** *******************************************************************************/
 391:.\Generated_Source\PSoC5/ADC_SAR_Seq_1.c **** int16 ADC_SAR_Seq_1_GetResult16(uint16 chan)
 392:.\Generated_Source\PSoC5/ADC_SAR_Seq_1.c **** {
 425              		.loc 1 392 0
 426              		.cfi_startproc
 427              		@ args = 0, pretend = 0, frame = 0
 428              		@ frame_needed = 0, uses_anonymous_args = 0
 429              		@ link register save eliminated.
 430              	.LVL32:
 393:.\Generated_Source\PSoC5/ADC_SAR_Seq_1.c ****     return (ADC_SAR_Seq_1_finalArray[ADC_SAR_Seq_1_GET_RESULT_INDEX_OFFSET - chan] - ADC_SAR_Seq_1_
 431              		.loc 1 393 0
 432 0000 4042     		negs	r0, r0
 433              	.LVL33:
 434 0002 044B     		ldr	r3, .L32
 435 0004 33F81030 		ldrh	r3, [r3, r0, lsl #1]
 436 0008 034A     		ldr	r2, .L32+4
 437 000a 1088     		ldrh	r0, [r2]
 438 000c 181A     		subs	r0, r3, r0
 394:.\Generated_Source\PSoC5/ADC_SAR_Seq_1.c **** }
 439              		.loc 1 394 0
 440 000e 00B2     		sxth	r0, r0
 441 0010 7047     		bx	lr
 442              	.L33:
 443 0012 00BF     		.align	2
 444              	.L32:
 445 0014 00000000 		.word	ADC_SAR_Seq_1_finalArray
 446 0018 00000000 		.word	ADC_SAR_Seq_1_SAR_shift
 447              		.cfi_endproc
 448              	.LFE8:
 449              		.size	ADC_SAR_Seq_1_GetResult16, .-ADC_SAR_Seq_1_GetResult16
 450              		.section	.text.ADC_SAR_Seq_1_GetAdcResult,"ax",%progbits
 451              		.align	2
 452              		.global	ADC_SAR_Seq_1_GetAdcResult
 453              		.thumb
 454              		.thumb_func
 455              		.type	ADC_SAR_Seq_1_GetAdcResult, %function
 456              	ADC_SAR_Seq_1_GetAdcResult:
 457              	.LFB9:
 395:.\Generated_Source\PSoC5/ADC_SAR_Seq_1.c **** 
 396:.\Generated_Source\PSoC5/ADC_SAR_Seq_1.c **** 
 397:.\Generated_Source\PSoC5/ADC_SAR_Seq_1.c **** /*******************************************************************************
 398:.\Generated_Source\PSoC5/ADC_SAR_Seq_1.c **** * Function Name: ADC_SAR_Seq_1_GetAdcResult
ARM GAS  C:\Users\chris\AppData\Local\Temp\ccQmEsxZ.s 			page 16


 399:.\Generated_Source\PSoC5/ADC_SAR_Seq_1.c **** ********************************************************************************
 400:.\Generated_Source\PSoC5/ADC_SAR_Seq_1.c **** *
 401:.\Generated_Source\PSoC5/ADC_SAR_Seq_1.c **** * Summary:
 402:.\Generated_Source\PSoC5/ADC_SAR_Seq_1.c **** *  Gets the data available in the SAR DATA register, not the results buffer
 403:.\Generated_Source\PSoC5/ADC_SAR_Seq_1.c **** *
 404:.\Generated_Source\PSoC5/ADC_SAR_Seq_1.c **** * Parameters:
 405:.\Generated_Source\PSoC5/ADC_SAR_Seq_1.c **** *  None.
 406:.\Generated_Source\PSoC5/ADC_SAR_Seq_1.c **** *
 407:.\Generated_Source\PSoC5/ADC_SAR_Seq_1.c **** * Return:
 408:.\Generated_Source\PSoC5/ADC_SAR_Seq_1.c **** *  The last ADC conversion result
 409:.\Generated_Source\PSoC5/ADC_SAR_Seq_1.c **** *
 410:.\Generated_Source\PSoC5/ADC_SAR_Seq_1.c **** * Side Effects:
 411:.\Generated_Source\PSoC5/ADC_SAR_Seq_1.c **** *  Converts the ADC counts to the 2's complement form
 412:.\Generated_Source\PSoC5/ADC_SAR_Seq_1.c **** *
 413:.\Generated_Source\PSoC5/ADC_SAR_Seq_1.c **** * Reentrant:
 414:.\Generated_Source\PSoC5/ADC_SAR_Seq_1.c **** *  No.
 415:.\Generated_Source\PSoC5/ADC_SAR_Seq_1.c **** *
 416:.\Generated_Source\PSoC5/ADC_SAR_Seq_1.c **** *******************************************************************************/
 417:.\Generated_Source\PSoC5/ADC_SAR_Seq_1.c **** int16 ADC_SAR_Seq_1_GetAdcResult(void)
 418:.\Generated_Source\PSoC5/ADC_SAR_Seq_1.c **** {
 458              		.loc 1 418 0
 459              		.cfi_startproc
 460              		@ args = 0, pretend = 0, frame = 0
 461              		@ frame_needed = 0, uses_anonymous_args = 0
 462 0000 08B5     		push	{r3, lr}
 463              		.cfi_def_cfa_offset 8
 464              		.cfi_offset 3, -8
 465              		.cfi_offset 14, -4
 419:.\Generated_Source\PSoC5/ADC_SAR_Seq_1.c ****     return (ADC_SAR_Seq_1_SAR_GetResult16());
 466              		.loc 1 419 0
 467 0002 FFF7FEFF 		bl	ADC_SAR_Seq_1_SAR_GetResult16
 468              	.LVL34:
 420:.\Generated_Source\PSoC5/ADC_SAR_Seq_1.c **** }
 469              		.loc 1 420 0
 470 0006 08BD     		pop	{r3, pc}
 471              		.cfi_endproc
 472              	.LFE9:
 473              		.size	ADC_SAR_Seq_1_GetAdcResult, .-ADC_SAR_Seq_1_GetAdcResult
 474              		.section	.text.ADC_SAR_Seq_1_SetOffset,"ax",%progbits
 475              		.align	2
 476              		.global	ADC_SAR_Seq_1_SetOffset
 477              		.thumb
 478              		.thumb_func
 479              		.type	ADC_SAR_Seq_1_SetOffset, %function
 480              	ADC_SAR_Seq_1_SetOffset:
 481              	.LFB10:
 421:.\Generated_Source\PSoC5/ADC_SAR_Seq_1.c **** 
 422:.\Generated_Source\PSoC5/ADC_SAR_Seq_1.c **** 
 423:.\Generated_Source\PSoC5/ADC_SAR_Seq_1.c **** /*******************************************************************************
 424:.\Generated_Source\PSoC5/ADC_SAR_Seq_1.c **** * Function Name: ADC_SAR_Seq_1_SetOffset
 425:.\Generated_Source\PSoC5/ADC_SAR_Seq_1.c **** ********************************************************************************
 426:.\Generated_Source\PSoC5/ADC_SAR_Seq_1.c **** *
 427:.\Generated_Source\PSoC5/ADC_SAR_Seq_1.c **** * Summary:
 428:.\Generated_Source\PSoC5/ADC_SAR_Seq_1.c **** *  Sets the ADC offset which is used by the functions _CountsTo_uVolts(),
 429:.\Generated_Source\PSoC5/ADC_SAR_Seq_1.c **** *  _CountsTo_mVolts() and _CountsTo_Volts() to substract the offset from the
 430:.\Generated_Source\PSoC5/ADC_SAR_Seq_1.c **** *  given reading before calculating the voltage conversion
 431:.\Generated_Source\PSoC5/ADC_SAR_Seq_1.c **** *
ARM GAS  C:\Users\chris\AppData\Local\Temp\ccQmEsxZ.s 			page 17


 432:.\Generated_Source\PSoC5/ADC_SAR_Seq_1.c **** * Parameters:
 433:.\Generated_Source\PSoC5/ADC_SAR_Seq_1.c **** *  offset: This value is measured when the inputs are shorted or connected to
 434:.\Generated_Source\PSoC5/ADC_SAR_Seq_1.c **** *  the same input voltage
 435:.\Generated_Source\PSoC5/ADC_SAR_Seq_1.c **** *
 436:.\Generated_Source\PSoC5/ADC_SAR_Seq_1.c **** * Return:
 437:.\Generated_Source\PSoC5/ADC_SAR_Seq_1.c **** *  None.
 438:.\Generated_Source\PSoC5/ADC_SAR_Seq_1.c **** *
 439:.\Generated_Source\PSoC5/ADC_SAR_Seq_1.c **** * Side Effects:
 440:.\Generated_Source\PSoC5/ADC_SAR_Seq_1.c **** *  Affects ADC_SAR_Seq_1_CountsTo_Volts(), 
 441:.\Generated_Source\PSoC5/ADC_SAR_Seq_1.c **** *  ADC_SAR_Seq_1_CountsTo_mVolts(), and ADC_SAR_Seq_1_CountsTo_uVolts() 
 442:.\Generated_Source\PSoC5/ADC_SAR_Seq_1.c **** *  by subtracting the given offset.
 443:.\Generated_Source\PSoC5/ADC_SAR_Seq_1.c **** *
 444:.\Generated_Source\PSoC5/ADC_SAR_Seq_1.c **** * Reentrant:
 445:.\Generated_Source\PSoC5/ADC_SAR_Seq_1.c **** *  No.
 446:.\Generated_Source\PSoC5/ADC_SAR_Seq_1.c **** *
 447:.\Generated_Source\PSoC5/ADC_SAR_Seq_1.c **** *******************************************************************************/
 448:.\Generated_Source\PSoC5/ADC_SAR_Seq_1.c **** void ADC_SAR_Seq_1_SetOffset(int32 offset)
 449:.\Generated_Source\PSoC5/ADC_SAR_Seq_1.c **** {
 482              		.loc 1 449 0
 483              		.cfi_startproc
 484              		@ args = 0, pretend = 0, frame = 0
 485              		@ frame_needed = 0, uses_anonymous_args = 0
 486              	.LVL35:
 487 0000 08B5     		push	{r3, lr}
 488              		.cfi_def_cfa_offset 8
 489              		.cfi_offset 3, -8
 490              		.cfi_offset 14, -4
 450:.\Generated_Source\PSoC5/ADC_SAR_Seq_1.c ****     ADC_SAR_Seq_1_SAR_SetOffset((int16)offset);
 491              		.loc 1 450 0
 492 0002 00B2     		sxth	r0, r0
 493              	.LVL36:
 494 0004 FFF7FEFF 		bl	ADC_SAR_Seq_1_SAR_SetOffset
 495              	.LVL37:
 496 0008 08BD     		pop	{r3, pc}
 497              		.cfi_endproc
 498              	.LFE10:
 499              		.size	ADC_SAR_Seq_1_SetOffset, .-ADC_SAR_Seq_1_SetOffset
 500              		.section	.text.ADC_SAR_Seq_1_SetResolution,"ax",%progbits
 501              		.align	2
 502              		.global	ADC_SAR_Seq_1_SetResolution
 503              		.thumb
 504              		.thumb_func
 505              		.type	ADC_SAR_Seq_1_SetResolution, %function
 506              	ADC_SAR_Seq_1_SetResolution:
 507              	.LFB11:
 451:.\Generated_Source\PSoC5/ADC_SAR_Seq_1.c **** }
 452:.\Generated_Source\PSoC5/ADC_SAR_Seq_1.c **** 
 453:.\Generated_Source\PSoC5/ADC_SAR_Seq_1.c **** 
 454:.\Generated_Source\PSoC5/ADC_SAR_Seq_1.c **** /*******************************************************************************
 455:.\Generated_Source\PSoC5/ADC_SAR_Seq_1.c **** * Function Name: ADC_SAR_Seq_1_SetResolution
 456:.\Generated_Source\PSoC5/ADC_SAR_Seq_1.c **** ********************************************************************************
 457:.\Generated_Source\PSoC5/ADC_SAR_Seq_1.c **** *
 458:.\Generated_Source\PSoC5/ADC_SAR_Seq_1.c **** * Summary:
 459:.\Generated_Source\PSoC5/ADC_SAR_Seq_1.c **** *  Sets the Relution of the SAR.
 460:.\Generated_Source\PSoC5/ADC_SAR_Seq_1.c **** *  This function does not affect the actual conversion with PSoC5 ES1 silicon.
 461:.\Generated_Source\PSoC5/ADC_SAR_Seq_1.c **** *
 462:.\Generated_Source\PSoC5/ADC_SAR_Seq_1.c **** * Parameters:
ARM GAS  C:\Users\chris\AppData\Local\Temp\ccQmEsxZ.s 			page 18


 463:.\Generated_Source\PSoC5/ADC_SAR_Seq_1.c **** *  resolution:
 464:.\Generated_Source\PSoC5/ADC_SAR_Seq_1.c **** *  12 ->    RES12
 465:.\Generated_Source\PSoC5/ADC_SAR_Seq_1.c **** *  10 ->    RES10
 466:.\Generated_Source\PSoC5/ADC_SAR_Seq_1.c **** *  8  ->    RES8
 467:.\Generated_Source\PSoC5/ADC_SAR_Seq_1.c **** *
 468:.\Generated_Source\PSoC5/ADC_SAR_Seq_1.c **** * Return:
 469:.\Generated_Source\PSoC5/ADC_SAR_Seq_1.c **** *  None.
 470:.\Generated_Source\PSoC5/ADC_SAR_Seq_1.c **** *
 471:.\Generated_Source\PSoC5/ADC_SAR_Seq_1.c **** * Side Effects:
 472:.\Generated_Source\PSoC5/ADC_SAR_Seq_1.c **** *  The ADC_SAR_Seq resolution cannot be changed during a conversion cycle. The
 473:.\Generated_Source\PSoC5/ADC_SAR_Seq_1.c **** *  recommended best practice is to stop conversions with
 474:.\Generated_Source\PSoC5/ADC_SAR_Seq_1.c **** *  ADC_SAR_Seq_1_StopConvert(), change the resolution, then restart the
 475:.\Generated_Source\PSoC5/ADC_SAR_Seq_1.c **** *  conversions with ADC_SAR_Seq_1_StartConvert().
 476:.\Generated_Source\PSoC5/ADC_SAR_Seq_1.c **** *  If you decide not to stop conversions before calling this API, you
 477:.\Generated_Source\PSoC5/ADC_SAR_Seq_1.c **** *  should use ADC_SAR_Seq_1_IsEndConversion() to wait until conversion is 
 478:.\Generated_Source\PSoC5/ADC_SAR_Seq_1.c **** *  complete  before changing the resolution.
 479:.\Generated_Source\PSoC5/ADC_SAR_Seq_1.c **** *  If you call ADC_SetResolution() during a conversion, the resolution will
 480:.\Generated_Source\PSoC5/ADC_SAR_Seq_1.c **** *  not be changed until the current conversion is complete. Data will not be
 481:.\Generated_Source\PSoC5/ADC_SAR_Seq_1.c **** *  available in the new resolution for another 6 + "New Resolution(in bits)"
 482:.\Generated_Source\PSoC5/ADC_SAR_Seq_1.c **** *  clock cycles.
 483:.\Generated_Source\PSoC5/ADC_SAR_Seq_1.c **** *  You may need add a delay of this number of clock cycles after
 484:.\Generated_Source\PSoC5/ADC_SAR_Seq_1.c **** *  ADC_SAR_Seq_1_SetResolution() is called before data is valid again.
 485:.\Generated_Source\PSoC5/ADC_SAR_Seq_1.c **** *  Affects ADC_SAR_Seq_1_CountsTo_Volts(), ADC_SAR_Seq_1_CountsTo_mVolts(), 
 486:.\Generated_Source\PSoC5/ADC_SAR_Seq_1.c **** *  and ADC_SAR_Seq_1_CountsTo_uVolts() by calculating the correct conversion 
 487:.\Generated_Source\PSoC5/ADC_SAR_Seq_1.c **** *  between ADC counts and the applied input voltage. Calculation depends on 
 488:.\Generated_Source\PSoC5/ADC_SAR_Seq_1.c **** *  resolution, input range, and voltage reference.
 489:.\Generated_Source\PSoC5/ADC_SAR_Seq_1.c **** *
 490:.\Generated_Source\PSoC5/ADC_SAR_Seq_1.c **** *******************************************************************************/
 491:.\Generated_Source\PSoC5/ADC_SAR_Seq_1.c **** void ADC_SAR_Seq_1_SetResolution(uint8 resolution)
 492:.\Generated_Source\PSoC5/ADC_SAR_Seq_1.c **** {
 508              		.loc 1 492 0
 509              		.cfi_startproc
 510              		@ args = 0, pretend = 0, frame = 0
 511              		@ frame_needed = 0, uses_anonymous_args = 0
 512              	.LVL38:
 513 0000 08B5     		push	{r3, lr}
 514              		.cfi_def_cfa_offset 8
 515              		.cfi_offset 3, -8
 516              		.cfi_offset 14, -4
 493:.\Generated_Source\PSoC5/ADC_SAR_Seq_1.c ****     ADC_SAR_Seq_1_SAR_SetResolution(resolution);
 517              		.loc 1 493 0
 518 0002 FFF7FEFF 		bl	ADC_SAR_Seq_1_SAR_SetResolution
 519              	.LVL39:
 520 0006 08BD     		pop	{r3, pc}
 521              		.cfi_endproc
 522              	.LFE11:
 523              		.size	ADC_SAR_Seq_1_SetResolution, .-ADC_SAR_Seq_1_SetResolution
 524              		.section	.text.ADC_SAR_Seq_1_SetGain,"ax",%progbits
 525              		.align	2
 526              		.global	ADC_SAR_Seq_1_SetGain
 527              		.thumb
 528              		.thumb_func
 529              		.type	ADC_SAR_Seq_1_SetGain, %function
 530              	ADC_SAR_Seq_1_SetGain:
 531              	.LFB12:
 494:.\Generated_Source\PSoC5/ADC_SAR_Seq_1.c **** }
 495:.\Generated_Source\PSoC5/ADC_SAR_Seq_1.c **** 
ARM GAS  C:\Users\chris\AppData\Local\Temp\ccQmEsxZ.s 			page 19


 496:.\Generated_Source\PSoC5/ADC_SAR_Seq_1.c **** 
 497:.\Generated_Source\PSoC5/ADC_SAR_Seq_1.c **** /*******************************************************************************
 498:.\Generated_Source\PSoC5/ADC_SAR_Seq_1.c **** * Function Name: ADC_SAR_Seq_1_SetGain
 499:.\Generated_Source\PSoC5/ADC_SAR_Seq_1.c **** ********************************************************************************
 500:.\Generated_Source\PSoC5/ADC_SAR_Seq_1.c **** *
 501:.\Generated_Source\PSoC5/ADC_SAR_Seq_1.c **** * Summary:
 502:.\Generated_Source\PSoC5/ADC_SAR_Seq_1.c **** *  Sets the ADC gain in counts per volt for the voltage conversion
 503:.\Generated_Source\PSoC5/ADC_SAR_Seq_1.c **** *
 504:.\Generated_Source\PSoC5/ADC_SAR_Seq_1.c **** * Parameters:
 505:.\Generated_Source\PSoC5/ADC_SAR_Seq_1.c **** *  adcGain: counts per volt
 506:.\Generated_Source\PSoC5/ADC_SAR_Seq_1.c **** *
 507:.\Generated_Source\PSoC5/ADC_SAR_Seq_1.c **** * Return:
 508:.\Generated_Source\PSoC5/ADC_SAR_Seq_1.c **** *  None.
 509:.\Generated_Source\PSoC5/ADC_SAR_Seq_1.c **** *
 510:.\Generated_Source\PSoC5/ADC_SAR_Seq_1.c **** * Side Effects:
 511:.\Generated_Source\PSoC5/ADC_SAR_Seq_1.c **** *  None.
 512:.\Generated_Source\PSoC5/ADC_SAR_Seq_1.c **** *
 513:.\Generated_Source\PSoC5/ADC_SAR_Seq_1.c **** * Reentrant:
 514:.\Generated_Source\PSoC5/ADC_SAR_Seq_1.c **** *  No.
 515:.\Generated_Source\PSoC5/ADC_SAR_Seq_1.c **** *
 516:.\Generated_Source\PSoC5/ADC_SAR_Seq_1.c **** *******************************************************************************/
 517:.\Generated_Source\PSoC5/ADC_SAR_Seq_1.c **** void ADC_SAR_Seq_1_SetGain(int32 adcGain)
 518:.\Generated_Source\PSoC5/ADC_SAR_Seq_1.c **** {
 532              		.loc 1 518 0
 533              		.cfi_startproc
 534              		@ args = 0, pretend = 0, frame = 0
 535              		@ frame_needed = 0, uses_anonymous_args = 0
 536              	.LVL40:
 537 0000 08B5     		push	{r3, lr}
 538              		.cfi_def_cfa_offset 8
 539              		.cfi_offset 3, -8
 540              		.cfi_offset 14, -4
 519:.\Generated_Source\PSoC5/ADC_SAR_Seq_1.c ****     ADC_SAR_Seq_1_SAR_SetGain((int16)adcGain);
 541              		.loc 1 519 0
 542 0002 00B2     		sxth	r0, r0
 543              	.LVL41:
 544 0004 FFF7FEFF 		bl	ADC_SAR_Seq_1_SAR_SetGain
 545              	.LVL42:
 546 0008 08BD     		pop	{r3, pc}
 547              		.cfi_endproc
 548              	.LFE12:
 549              		.size	ADC_SAR_Seq_1_SetGain, .-ADC_SAR_Seq_1_SetGain
 550              		.section	.text.ADC_SAR_Seq_1_SetScaledGain,"ax",%progbits
 551              		.align	2
 552              		.global	ADC_SAR_Seq_1_SetScaledGain
 553              		.thumb
 554              		.thumb_func
 555              		.type	ADC_SAR_Seq_1_SetScaledGain, %function
 556              	ADC_SAR_Seq_1_SetScaledGain:
 557              	.LFB13:
 520:.\Generated_Source\PSoC5/ADC_SAR_Seq_1.c **** }
 521:.\Generated_Source\PSoC5/ADC_SAR_Seq_1.c **** 
 522:.\Generated_Source\PSoC5/ADC_SAR_Seq_1.c **** 
 523:.\Generated_Source\PSoC5/ADC_SAR_Seq_1.c **** /*******************************************************************************
 524:.\Generated_Source\PSoC5/ADC_SAR_Seq_1.c **** * Function Name: ADC_SAR_Seq_1_SetScaledGain
 525:.\Generated_Source\PSoC5/ADC_SAR_Seq_1.c **** ********************************************************************************
 526:.\Generated_Source\PSoC5/ADC_SAR_Seq_1.c **** *
ARM GAS  C:\Users\chris\AppData\Local\Temp\ccQmEsxZ.s 			page 20


 527:.\Generated_Source\PSoC5/ADC_SAR_Seq_1.c **** * Summary:
 528:.\Generated_Source\PSoC5/ADC_SAR_Seq_1.c **** *  Sets the ADC gain in counts per 10 volts for the voltage conversion functions
 529:.\Generated_Source\PSoC5/ADC_SAR_Seq_1.c **** *  that follow. This value is set by default by the reference and input range
 530:.\Generated_Source\PSoC5/ADC_SAR_Seq_1.c **** *  settings. It should only be used to further calibrate the ADC with a known
 531:.\Generated_Source\PSoC5/ADC_SAR_Seq_1.c **** *  input or if the ADC is using an external reference.
 532:.\Generated_Source\PSoC5/ADC_SAR_Seq_1.c **** *
 533:.\Generated_Source\PSoC5/ADC_SAR_Seq_1.c **** * Parameters:
 534:.\Generated_Source\PSoC5/ADC_SAR_Seq_1.c **** *  int32  adcGain  counts per 10 volt
 535:.\Generated_Source\PSoC5/ADC_SAR_Seq_1.c **** *
 536:.\Generated_Source\PSoC5/ADC_SAR_Seq_1.c **** * Return:
 537:.\Generated_Source\PSoC5/ADC_SAR_Seq_1.c **** *  None.
 538:.\Generated_Source\PSoC5/ADC_SAR_Seq_1.c **** *
 539:.\Generated_Source\PSoC5/ADC_SAR_Seq_1.c **** * Side Effects:
 540:.\Generated_Source\PSoC5/ADC_SAR_Seq_1.c **** *  Affects ADC_SAR_Seq_1_CountsTo_Volts(), ADC_SAR_Seq_1_CountsTo_mVolts(),
 541:.\Generated_Source\PSoC5/ADC_SAR_Seq_1.c **** *  ADC_SAR_Seq_1_CountsTo_uVolts() by supplying the correct conversion 
 542:.\Generated_Source\PSoC5/ADC_SAR_Seq_1.c **** *  between ADC counts and the applied input voltage
 543:.\Generated_Source\PSoC5/ADC_SAR_Seq_1.c **** *
 544:.\Generated_Source\PSoC5/ADC_SAR_Seq_1.c **** * Reentrant:
 545:.\Generated_Source\PSoC5/ADC_SAR_Seq_1.c **** *  No.
 546:.\Generated_Source\PSoC5/ADC_SAR_Seq_1.c **** *
 547:.\Generated_Source\PSoC5/ADC_SAR_Seq_1.c **** *******************************************************************************/
 548:.\Generated_Source\PSoC5/ADC_SAR_Seq_1.c **** void ADC_SAR_Seq_1_SetScaledGain(int32 adcGain)
 549:.\Generated_Source\PSoC5/ADC_SAR_Seq_1.c **** {
 558              		.loc 1 549 0
 559              		.cfi_startproc
 560              		@ args = 0, pretend = 0, frame = 0
 561              		@ frame_needed = 0, uses_anonymous_args = 0
 562              	.LVL43:
 563 0000 08B5     		push	{r3, lr}
 564              		.cfi_def_cfa_offset 8
 565              		.cfi_offset 3, -8
 566              		.cfi_offset 14, -4
 550:.\Generated_Source\PSoC5/ADC_SAR_Seq_1.c ****     ADC_SAR_Seq_1_SAR_SetScaledGain(adcGain);
 567              		.loc 1 550 0
 568 0002 FFF7FEFF 		bl	ADC_SAR_Seq_1_SAR_SetScaledGain
 569              	.LVL44:
 570 0006 08BD     		pop	{r3, pc}
 571              		.cfi_endproc
 572              	.LFE13:
 573              		.size	ADC_SAR_Seq_1_SetScaledGain, .-ADC_SAR_Seq_1_SetScaledGain
 574              		.section	.text.ADC_SAR_Seq_1_CountsTo_mVolts,"ax",%progbits
 575              		.align	2
 576              		.global	ADC_SAR_Seq_1_CountsTo_mVolts
 577              		.thumb
 578              		.thumb_func
 579              		.type	ADC_SAR_Seq_1_CountsTo_mVolts, %function
 580              	ADC_SAR_Seq_1_CountsTo_mVolts:
 581              	.LFB14:
 551:.\Generated_Source\PSoC5/ADC_SAR_Seq_1.c **** }
 552:.\Generated_Source\PSoC5/ADC_SAR_Seq_1.c **** 
 553:.\Generated_Source\PSoC5/ADC_SAR_Seq_1.c **** 
 554:.\Generated_Source\PSoC5/ADC_SAR_Seq_1.c **** /*******************************************************************************
 555:.\Generated_Source\PSoC5/ADC_SAR_Seq_1.c **** * Function Name: ADC_SAR_Seq_1_CountsTo_mVolts
 556:.\Generated_Source\PSoC5/ADC_SAR_Seq_1.c **** ********************************************************************************
 557:.\Generated_Source\PSoC5/ADC_SAR_Seq_1.c **** *
 558:.\Generated_Source\PSoC5/ADC_SAR_Seq_1.c **** * Summary:
 559:.\Generated_Source\PSoC5/ADC_SAR_Seq_1.c **** *  Converts the ADC output to mVolts as a 32-bit integer
ARM GAS  C:\Users\chris\AppData\Local\Temp\ccQmEsxZ.s 			page 21


 560:.\Generated_Source\PSoC5/ADC_SAR_Seq_1.c **** *
 561:.\Generated_Source\PSoC5/ADC_SAR_Seq_1.c **** * Parameters:
 562:.\Generated_Source\PSoC5/ADC_SAR_Seq_1.c **** *  adcCounts: Result from the ADC_SAR_Seq conversion
 563:.\Generated_Source\PSoC5/ADC_SAR_Seq_1.c **** *
 564:.\Generated_Source\PSoC5/ADC_SAR_Seq_1.c **** * Return:
 565:.\Generated_Source\PSoC5/ADC_SAR_Seq_1.c **** *  Result in mV
 566:.\Generated_Source\PSoC5/ADC_SAR_Seq_1.c **** *
 567:.\Generated_Source\PSoC5/ADC_SAR_Seq_1.c **** * Side Effects:
 568:.\Generated_Source\PSoC5/ADC_SAR_Seq_1.c **** *  None.
 569:.\Generated_Source\PSoC5/ADC_SAR_Seq_1.c **** *
 570:.\Generated_Source\PSoC5/ADC_SAR_Seq_1.c **** * Reentrant:
 571:.\Generated_Source\PSoC5/ADC_SAR_Seq_1.c **** *  No.
 572:.\Generated_Source\PSoC5/ADC_SAR_Seq_1.c **** *
 573:.\Generated_Source\PSoC5/ADC_SAR_Seq_1.c **** *******************************************************************************/
 574:.\Generated_Source\PSoC5/ADC_SAR_Seq_1.c **** int32 ADC_SAR_Seq_1_CountsTo_mVolts(int16 adcCounts)
 575:.\Generated_Source\PSoC5/ADC_SAR_Seq_1.c **** {
 582              		.loc 1 575 0
 583              		.cfi_startproc
 584              		@ args = 0, pretend = 0, frame = 0
 585              		@ frame_needed = 0, uses_anonymous_args = 0
 586              	.LVL45:
 587 0000 08B5     		push	{r3, lr}
 588              		.cfi_def_cfa_offset 8
 589              		.cfi_offset 3, -8
 590              		.cfi_offset 14, -4
 576:.\Generated_Source\PSoC5/ADC_SAR_Seq_1.c ****     return ((int32) ADC_SAR_Seq_1_SAR_CountsTo_mVolts(adcCounts));
 591              		.loc 1 576 0
 592 0002 FFF7FEFF 		bl	ADC_SAR_Seq_1_SAR_CountsTo_mVolts
 593              	.LVL46:
 577:.\Generated_Source\PSoC5/ADC_SAR_Seq_1.c **** }
 594              		.loc 1 577 0
 595 0006 08BD     		pop	{r3, pc}
 596              		.cfi_endproc
 597              	.LFE14:
 598              		.size	ADC_SAR_Seq_1_CountsTo_mVolts, .-ADC_SAR_Seq_1_CountsTo_mVolts
 599              		.section	.text.ADC_SAR_Seq_1_CountsTo_uVolts,"ax",%progbits
 600              		.align	2
 601              		.global	ADC_SAR_Seq_1_CountsTo_uVolts
 602              		.thumb
 603              		.thumb_func
 604              		.type	ADC_SAR_Seq_1_CountsTo_uVolts, %function
 605              	ADC_SAR_Seq_1_CountsTo_uVolts:
 606              	.LFB15:
 578:.\Generated_Source\PSoC5/ADC_SAR_Seq_1.c **** 
 579:.\Generated_Source\PSoC5/ADC_SAR_Seq_1.c **** 
 580:.\Generated_Source\PSoC5/ADC_SAR_Seq_1.c **** /*******************************************************************************
 581:.\Generated_Source\PSoC5/ADC_SAR_Seq_1.c **** * Function Name: ADC_SAR_Seq_1_CountsTo_uVolts
 582:.\Generated_Source\PSoC5/ADC_SAR_Seq_1.c **** ********************************************************************************
 583:.\Generated_Source\PSoC5/ADC_SAR_Seq_1.c **** *
 584:.\Generated_Source\PSoC5/ADC_SAR_Seq_1.c **** * Summary:
 585:.\Generated_Source\PSoC5/ADC_SAR_Seq_1.c **** *  Converts the ADC output to uVolts as a 32-bit integer
 586:.\Generated_Source\PSoC5/ADC_SAR_Seq_1.c **** *
 587:.\Generated_Source\PSoC5/ADC_SAR_Seq_1.c **** * Parameters:
 588:.\Generated_Source\PSoC5/ADC_SAR_Seq_1.c **** *  adcCounts: Result from the ADC conversion
 589:.\Generated_Source\PSoC5/ADC_SAR_Seq_1.c **** *
 590:.\Generated_Source\PSoC5/ADC_SAR_Seq_1.c **** * Return:
 591:.\Generated_Source\PSoC5/ADC_SAR_Seq_1.c **** *  Result in uV
ARM GAS  C:\Users\chris\AppData\Local\Temp\ccQmEsxZ.s 			page 22


 592:.\Generated_Source\PSoC5/ADC_SAR_Seq_1.c **** *
 593:.\Generated_Source\PSoC5/ADC_SAR_Seq_1.c **** * Side Effects:
 594:.\Generated_Source\PSoC5/ADC_SAR_Seq_1.c **** *  None.
 595:.\Generated_Source\PSoC5/ADC_SAR_Seq_1.c **** *
 596:.\Generated_Source\PSoC5/ADC_SAR_Seq_1.c **** * Reentrant:
 597:.\Generated_Source\PSoC5/ADC_SAR_Seq_1.c **** *  No.
 598:.\Generated_Source\PSoC5/ADC_SAR_Seq_1.c **** *
 599:.\Generated_Source\PSoC5/ADC_SAR_Seq_1.c **** *******************************************************************************/
 600:.\Generated_Source\PSoC5/ADC_SAR_Seq_1.c **** int32 ADC_SAR_Seq_1_CountsTo_uVolts(int16 adcCounts)
 601:.\Generated_Source\PSoC5/ADC_SAR_Seq_1.c **** {
 607              		.loc 1 601 0
 608              		.cfi_startproc
 609              		@ args = 0, pretend = 0, frame = 0
 610              		@ frame_needed = 0, uses_anonymous_args = 0
 611              	.LVL47:
 612 0000 08B5     		push	{r3, lr}
 613              		.cfi_def_cfa_offset 8
 614              		.cfi_offset 3, -8
 615              		.cfi_offset 14, -4
 602:.\Generated_Source\PSoC5/ADC_SAR_Seq_1.c ****     return (ADC_SAR_Seq_1_SAR_CountsTo_uVolts(adcCounts));
 616              		.loc 1 602 0
 617 0002 FFF7FEFF 		bl	ADC_SAR_Seq_1_SAR_CountsTo_uVolts
 618              	.LVL48:
 603:.\Generated_Source\PSoC5/ADC_SAR_Seq_1.c **** }
 619              		.loc 1 603 0
 620 0006 08BD     		pop	{r3, pc}
 621              		.cfi_endproc
 622              	.LFE15:
 623              		.size	ADC_SAR_Seq_1_CountsTo_uVolts, .-ADC_SAR_Seq_1_CountsTo_uVolts
 624              		.section	.text.ADC_SAR_Seq_1_CountsTo_Volts,"ax",%progbits
 625              		.align	2
 626              		.global	ADC_SAR_Seq_1_CountsTo_Volts
 627              		.thumb
 628              		.thumb_func
 629              		.type	ADC_SAR_Seq_1_CountsTo_Volts, %function
 630              	ADC_SAR_Seq_1_CountsTo_Volts:
 631              	.LFB16:
 604:.\Generated_Source\PSoC5/ADC_SAR_Seq_1.c **** 
 605:.\Generated_Source\PSoC5/ADC_SAR_Seq_1.c **** 
 606:.\Generated_Source\PSoC5/ADC_SAR_Seq_1.c **** /*******************************************************************************
 607:.\Generated_Source\PSoC5/ADC_SAR_Seq_1.c **** * Function Name: ADC_SAR_Seq_1_CountsTo_Volts
 608:.\Generated_Source\PSoC5/ADC_SAR_Seq_1.c **** ********************************************************************************
 609:.\Generated_Source\PSoC5/ADC_SAR_Seq_1.c **** *
 610:.\Generated_Source\PSoC5/ADC_SAR_Seq_1.c **** * Summary:
 611:.\Generated_Source\PSoC5/ADC_SAR_Seq_1.c **** *  Converts the ADC output to Volts as a floating point number
 612:.\Generated_Source\PSoC5/ADC_SAR_Seq_1.c **** *
 613:.\Generated_Source\PSoC5/ADC_SAR_Seq_1.c **** * Parameters:
 614:.\Generated_Source\PSoC5/ADC_SAR_Seq_1.c **** *  adcCounts: Result from the ADC_SAR_Seq conversion
 615:.\Generated_Source\PSoC5/ADC_SAR_Seq_1.c **** *
 616:.\Generated_Source\PSoC5/ADC_SAR_Seq_1.c **** * Return:
 617:.\Generated_Source\PSoC5/ADC_SAR_Seq_1.c **** *  Result in volts
 618:.\Generated_Source\PSoC5/ADC_SAR_Seq_1.c **** *
 619:.\Generated_Source\PSoC5/ADC_SAR_Seq_1.c **** * Side Effects:
 620:.\Generated_Source\PSoC5/ADC_SAR_Seq_1.c **** *  None.
 621:.\Generated_Source\PSoC5/ADC_SAR_Seq_1.c **** *
 622:.\Generated_Source\PSoC5/ADC_SAR_Seq_1.c **** * Reentrant:
 623:.\Generated_Source\PSoC5/ADC_SAR_Seq_1.c **** *  No.
ARM GAS  C:\Users\chris\AppData\Local\Temp\ccQmEsxZ.s 			page 23


 624:.\Generated_Source\PSoC5/ADC_SAR_Seq_1.c **** *
 625:.\Generated_Source\PSoC5/ADC_SAR_Seq_1.c **** *******************************************************************************/
 626:.\Generated_Source\PSoC5/ADC_SAR_Seq_1.c **** float32 ADC_SAR_Seq_1_CountsTo_Volts(int16 adcCounts)
 627:.\Generated_Source\PSoC5/ADC_SAR_Seq_1.c **** {
 632              		.loc 1 627 0
 633              		.cfi_startproc
 634              		@ args = 0, pretend = 0, frame = 0
 635              		@ frame_needed = 0, uses_anonymous_args = 0
 636              	.LVL49:
 637 0000 08B5     		push	{r3, lr}
 638              		.cfi_def_cfa_offset 8
 639              		.cfi_offset 3, -8
 640              		.cfi_offset 14, -4
 628:.\Generated_Source\PSoC5/ADC_SAR_Seq_1.c ****     return (ADC_SAR_Seq_1_SAR_CountsTo_Volts(adcCounts));
 641              		.loc 1 628 0
 642 0002 FFF7FEFF 		bl	ADC_SAR_Seq_1_SAR_CountsTo_Volts
 643              	.LVL50:
 629:.\Generated_Source\PSoC5/ADC_SAR_Seq_1.c **** }
 644              		.loc 1 629 0
 645 0006 08BD     		pop	{r3, pc}
 646              		.cfi_endproc
 647              	.LFE16:
 648              		.size	ADC_SAR_Seq_1_CountsTo_Volts, .-ADC_SAR_Seq_1_CountsTo_Volts
 649              		.global	ADC_SAR_Seq_1_initVar
 650              		.comm	ADC_SAR_Seq_1_finalArray,2,4
 651              		.data
 652              		.set	.LANCHOR1,. + 0
 653              		.type	ADC_SAR_Seq_1_tempTD, %object
 654              		.size	ADC_SAR_Seq_1_tempTD, 1
 655              	ADC_SAR_Seq_1_tempTD:
 656 0000 FF       		.byte	-1
 657              		.type	ADC_SAR_Seq_1_finalTD, %object
 658              		.size	ADC_SAR_Seq_1_finalTD, 1
 659              	ADC_SAR_Seq_1_finalTD:
 660 0001 FF       		.byte	-1
 661              		.bss
 662              		.align	2
 663              		.set	.LANCHOR0,. + 0
 664              		.type	ADC_SAR_Seq_1_tempChan, %object
 665              		.size	ADC_SAR_Seq_1_tempChan, 1
 666              	ADC_SAR_Seq_1_tempChan:
 667 0000 00       		.space	1
 668              		.type	ADC_SAR_Seq_1_finalChan, %object
 669              		.size	ADC_SAR_Seq_1_finalChan, 1
 670              	ADC_SAR_Seq_1_finalChan:
 671 0001 00       		.space	1
 672 0002 0000     		.space	2
 673              		.type	ADC_SAR_Seq_1_tempArray.5046, %object
 674              		.size	ADC_SAR_Seq_1_tempArray.5046, 2
 675              	ADC_SAR_Seq_1_tempArray.5046:
 676 0004 0000     		.space	2
 677 0006 0000     		.space	2
 678              		.type	ADC_SAR_Seq_1_initVar, %object
 679              		.size	ADC_SAR_Seq_1_initVar, 4
 680              	ADC_SAR_Seq_1_initVar:
 681 0008 00000000 		.space	4
 682              		.text
ARM GAS  C:\Users\chris\AppData\Local\Temp\ccQmEsxZ.s 			page 24


 683              	.Letext0:
 684              		.file 2 ".\\Generated_Source\\PSoC5\\cytypes.h"
 685              		.file 3 ".\\Generated_Source\\PSoC5\\ADC_SAR_Seq_1_SAR.h"
 686              		.file 4 "Generated_Source\\PSoC5/CYDMAC.H"
 687              		.file 5 ".\\Generated_Source\\PSoC5\\ADC_SAR_Seq_1_TempBuf_dma.h"
 688              		.file 6 ".\\Generated_Source\\PSoC5\\ADC_SAR_Seq_1_FinalBuf_dma.h"
 689              		.file 7 ".\\Generated_Source\\PSoC5\\ADC_SAR_Seq_1_IRQ.h"
 690              		.file 8 ".\\Generated_Source\\PSoC5\\CyLib.h"